Archive member included because of file (symbol)

c:/devkitPro/libogc/lib/cube\libmad.a(mp3player.o)
                              template.o (MP3Player_IsPlaying)
c:/devkitPro/libogc/lib/cube\libmad.a(frame.o)
                              c:/devkitPro/libogc/lib/cube\libmad.a(mp3player.o) (mad_frame_init)
c:/devkitPro/libogc/lib/cube\libmad.a(layer12.o)
                              c:/devkitPro/libogc/lib/cube\libmad.a(frame.o) (mad_layer_II)
c:/devkitPro/libogc/lib/cube\libmad.a(layer3.o)
                              c:/devkitPro/libogc/lib/cube\libmad.a(frame.o) (mad_layer_III)
c:/devkitPro/libogc/lib/cube\libmad.a(stream.o)
                              c:/devkitPro/libogc/lib/cube\libmad.a(frame.o) (mad_stream_sync)
c:/devkitPro/libogc/lib/cube\libmad.a(synth.o)
                              c:/devkitPro/libogc/lib/cube\libmad.a(mp3player.o) (mad_synth_init)
c:/devkitPro/libogc/lib/cube\libmad.a(timer.o)
                              c:/devkitPro/libogc/lib/cube\libmad.a(mp3player.o) (mad_timer_add)
c:/devkitPro/libogc/lib/cube\libmad.a(bit.o)
                              c:/devkitPro/libogc/lib/cube\libmad.a(frame.o) (mad_bit_init)
c:/devkitPro/libogc/lib/cube\libmad.a(huffman.o)
                              c:/devkitPro/libogc/lib/cube\libmad.a(layer3.o) (mad_huff_quad_table)
c:/devkitpro/devkitppc/bin/../lib/gcc/powerpc-gekko/4.2.3/../../../../powerpc-gekko/lib\libm.a(lib_a-s_sin.o)
                              c:/devkitPro/libogc/lib/cube\libmad.a(mp3player.o) (sin)
c:/devkitpro/devkitppc/bin/../lib/gcc/powerpc-gekko/4.2.3/../../../../powerpc-gekko/lib\libm.a(lib_a-s_sine.o)
                              c:/devkitpro/devkitppc/bin/../lib/gcc/powerpc-gekko/4.2.3/../../../../powerpc-gekko/lib\libm.a(lib_a-s_sin.o) (sine)
c:/devkitpro/devkitppc/bin/../lib/gcc/powerpc-gekko/4.2.3/../../../../powerpc-gekko/lib\libm.a(lib_a-s_fabs.o)
                              c:/devkitpro/devkitppc/bin/../lib/gcc/powerpc-gekko/4.2.3/../../../../powerpc-gekko/lib\libm.a(lib_a-s_sine.o) (fabs)
c:/devkitpro/devkitppc/bin/../lib/gcc/powerpc-gekko/4.2.3/../../../../powerpc-gekko/lib\libm.a(lib_a-s_mathcnst.o)
                              c:/devkitpro/devkitppc/bin/../lib/gcc/powerpc-gekko/4.2.3/../../../../powerpc-gekko/lib\libm.a(lib_a-s_sine.o) (z_rooteps)
c:/devkitpro/devkitppc/bin/../lib/gcc/powerpc-gekko/4.2.3/../../../../powerpc-gekko/lib\libm.a(lib_a-s_numtest.o)
                              c:/devkitpro/devkitppc/bin/../lib/gcc/powerpc-gekko/4.2.3/../../../../powerpc-gekko/lib\libm.a(lib_a-s_sine.o) (numtest)
c:/devkitPro/libogc/lib/cube\libogc.a(console.o)
                              template.o (CON_Init)
c:/devkitPro/libogc/lib/cube\libogc.a(lwp.o)
                              c:/devkitPro/libogc/lib/cube\libmad.a(mp3player.o) (LWP_ThreadSignal)
c:/devkitPro/libogc/lib/cube\libogc.a(lwp_objmgr.o)
                              c:/devkitPro/libogc/lib/cube\libogc.a(lwp.o) (__lwp_objmgr_getnoprotection)
c:/devkitPro/libogc/lib/cube\libogc.a(lwp_heap.o)
                              c:/devkitPro/libogc/lib/cube\libogc.a(lwp_objmgr.o) (__lwp_heap_free)
c:/devkitPro/libogc/lib/cube\libogc.a(sys_state.o)
                              c:/devkitPro/libogc/lib/cube\libogc.a(lwp_heap.o) (_sys_state_curr)
c:/devkitPro/libogc/lib/cube\libogc.a(video.o)
                              c:/devkitPro/libogc/lib/cube\libogc.a(console.o) (VIDEO_GetCurrentFramebuffer)
c:/devkitPro/libogc/lib/cube\libogc.a(pad.o)
                              freetype.o (PAD_ButtonsDown)
c:/devkitPro/libogc/lib/cube\libogc.a(cache_asm.o)
                              c:/devkitPro/libogc/lib/cube\libmad.a(mp3player.o) (DCFlushRange)
c:/devkitPro/libogc/lib/cube\libogc.a(system.o)
                              c:/devkitPro/libogc/lib/cube\libogc.a(video.o) (__SYS_LockSram)
c:/devkitPro/libogc/lib/cube\libogc.a(system_asm.o)
                              c:/devkitPro/libogc/lib/cube\libogc.a(system.o) (__realmode)
c:/devkitPro/libogc/lib/cube\libogc.a(cond.o)
                              c:/devkitPro/libogc/lib/cube\libogc.a(system.o) (__lwp_cond_init)
c:/devkitPro/libogc/lib/cube\libogc.a(audio.o)
                              c:/devkitPro/libogc/lib/cube\libmad.a(mp3player.o) (AUDIO_RegisterDMACallback)
c:/devkitPro/libogc/lib/cube\libogc.a(decrementer.o)
                              c:/devkitPro/libogc/lib/cube\libogc.a(system.o) (__decrementer_init)
c:/devkitPro/libogc/lib/cube\libogc.a(message.o)
                              c:/devkitPro/libogc/lib/cube\libogc.a(system.o) (__lwp_mqbox_init)
c:/devkitPro/libogc/lib/cube\libogc.a(card.o)
                              template.o (CARD_Unmount)
c:/devkitPro/libogc/lib/cube\libogc.a(dsp.o)
                              c:/devkitPro/libogc/lib/cube\libogc.a(card.o) (DSP_CheckMailTo)
c:/devkitPro/libogc/lib/cube\libogc.a(si.o)
                              c:/devkitPro/libogc/lib/cube\libogc.a(pad.o) (SI_Busy)
c:/devkitPro/libogc/lib/cube\libogc.a(ogc_crt0.o)
                              (_start)
c:/devkitPro/libogc/lib/cube\libogc.a(console_font_8x16.o)
                              c:/devkitPro/libogc/lib/cube\libogc.a(console.o) (console_font_8x16)
c:/devkitPro/libogc/lib/cube\libogc.a(timesupp.o)
                              c:/devkitPro/libogc/lib/cube\libogc.a(system.o) (gettick)
c:/devkitPro/libogc/lib/cube\libogc.a(lock_supp.o)
                              c:/devkitPro/libogc/lib/cube\libogc.a(system.o) (__libogc_lock_release)
c:/devkitPro/libogc/lib/cube\libogc.a(newlibc.o)
                              c:/devkitPro/libogc/lib/cube\libogc.a(system.o) (__libc_init)
c:/devkitPro/libogc/lib/cube\libogc.a(sbrk.o)
                              c:/devkitPro/libogc/lib/cube\libogc.a(system.o) (__libogc_sbrk_r)
c:/devkitPro/libogc/lib/cube\libogc.a(malloc_lock.o)
                              c:/devkitPro/libogc/lib/cube\libogc.a(system.o) (__libogc_malloc_lock)
c:/devkitPro/libogc/lib/cube\libogc.a(argv.o)
                              c:/devkitPro/libogc/lib/cube\libogc.a(ogc_crt0.o) (__CheckARGV)
c:/devkitPro/libogc/lib/cube\libogc.a(lwp_priority.o)
                              c:/devkitPro/libogc/lib/cube\libogc.a(system.o) (__lwp_priority_init)
c:/devkitPro/libogc/lib/cube\libogc.a(lwp_queue.o)
                              c:/devkitPro/libogc/lib/cube\libogc.a(lwp_objmgr.o) (__lwp_queue_initialize)
c:/devkitPro/libogc/lib/cube\libogc.a(lwp_threadq.o)
                              c:/devkitPro/libogc/lib/cube\libogc.a(cond.o) (__lwp_threadqueue_first)
c:/devkitPro/libogc/lib/cube\libogc.a(lwp_threads.o)
                              c:/devkitPro/libogc/lib/cube\libogc.a(lwp.o) (__lwp_thread_yield)
c:/devkitPro/libogc/lib/cube\libogc.a(lwp_messages.o)
                              c:/devkitPro/libogc/lib/cube\libogc.a(message.o) (__lwpmq_close)
c:/devkitPro/libogc/lib/cube\libogc.a(lwp_handler.o)
                              c:/devkitPro/libogc/lib/cube\libogc.a(lwp_threads.o) (_cpu_context_save_fp)
c:/devkitPro/libogc/lib/cube\libogc.a(lwp_stack.o)
                              c:/devkitPro/libogc/lib/cube\libogc.a(lwp_threads.o) (__lwp_stack_free)
c:/devkitPro/libogc/lib/cube\libogc.a(lwp_mutex.o)
                              c:/devkitPro/libogc/lib/cube\libogc.a(malloc_lock.o) (__lwp_mutex_initialize)
c:/devkitPro/libogc/lib/cube\libogc.a(lwp_watchdog.o)
                              c:/devkitPro/libogc/lib/cube\libogc.a(system.o) (__lwp_watchdog_init)
c:/devkitPro/libogc/lib/cube\libogc.a(lwp_wkspace.o)
                              c:/devkitPro/libogc/lib/cube\libogc.a(system.o) (__lwp_wkspace_init)
c:/devkitPro/libogc/lib/cube\libogc.a(exception.o)
                              c:/devkitPro/libogc/lib/cube\libogc.a(system.o) (__libogc_exit)
c:/devkitPro/libogc/lib/cube\libogc.a(irq.o)
                              c:/devkitPro/libogc/lib/cube\libogc.a(video.o) (__UnmaskIrq)
c:/devkitPro/libogc/lib/cube\libogc.a(irq_handler.o)
                              c:/devkitPro/libogc/lib/cube\libogc.a(exception.o) (irq_exceptionhandler)
c:/devkitPro/libogc/lib/cube\libogc.a(semaphore.o)
                              c:/devkitPro/libogc/lib/cube\libogc.a(system.o) (__lwp_sema_init)
c:/devkitPro/libogc/lib/cube\libogc.a(video_asm.o)
                              c:/devkitPro/libogc/lib/cube\libogc.a(video.o) (__VIClearFramebuffer)
c:/devkitPro/libogc/lib/cube\libogc.a(exi.o)
                              c:/devkitPro/libogc/lib/cube\libogc.a(system.o) (EXI_Sync)
c:/devkitPro/libogc/lib/cube\libogc.a(mutex.o)
                              c:/devkitPro/libogc/lib/cube\libogc.a(system.o) (__lwp_mutex_init)
c:/devkitPro/libogc/lib/cube\libogc.a(decrementer_handler.o)
                              c:/devkitPro/libogc/lib/cube\libogc.a(exception.o) (dec_exceptionhandler)
c:/devkitPro/libogc/lib/cube\libogc.a(kprintf.o)
                              c:/devkitPro/libogc/lib/cube\libogc.a(exception.o) (kprintf)
c:/devkitPro/libogc/lib/cube\libogc.a(lwp_sema.o)
                              c:/devkitPro/libogc/lib/cube\libogc.a(semaphore.o) (__lwp_sema_flush)
c:/devkitPro/libogc/lib/cube\libogc.a(exception_handler.o)
                              c:/devkitPro/libogc/lib/cube\libogc.a(exception.o) (exceptionhandler_start)
c:/devkitpro/devkitppc/bin/../lib/gcc/powerpc-gekko/4.2.3/../../../../powerpc-gekko/lib\libfreetype.a(ftinit.o)
                              freetype.o (FT_Init_FreeType)
c:/devkitpro/devkitppc/bin/../lib/gcc/powerpc-gekko/4.2.3/../../../../powerpc-gekko/lib\libfreetype.a(ftbase.o)
                              freetype.o (FT_New_Memory_Face)
c:/devkitpro/devkitppc/bin/../lib/gcc/powerpc-gekko/4.2.3/../../../../powerpc-gekko/lib\libfreetype.a(truetype.o)
                              c:/devkitpro/devkitppc/bin/../lib/gcc/powerpc-gekko/4.2.3/../../../../powerpc-gekko/lib\libfreetype.a(ftinit.o) (tt_driver_class)
c:/devkitpro/devkitppc/bin/../lib/gcc/powerpc-gekko/4.2.3/../../../../powerpc-gekko/lib\libfreetype.a(type1.o)
                              c:/devkitpro/devkitppc/bin/../lib/gcc/powerpc-gekko/4.2.3/../../../../powerpc-gekko/lib\libfreetype.a(ftinit.o) (t1_driver_class)
c:/devkitpro/devkitppc/bin/../lib/gcc/powerpc-gekko/4.2.3/../../../../powerpc-gekko/lib\libfreetype.a(cff.o)
                              c:/devkitpro/devkitppc/bin/../lib/gcc/powerpc-gekko/4.2.3/../../../../powerpc-gekko/lib\libfreetype.a(ftinit.o) (cff_driver_class)
c:/devkitpro/devkitppc/bin/../lib/gcc/powerpc-gekko/4.2.3/../../../../powerpc-gekko/lib\libfreetype.a(type1cid.o)
                              c:/devkitpro/devkitppc/bin/../lib/gcc/powerpc-gekko/4.2.3/../../../../powerpc-gekko/lib\libfreetype.a(ftinit.o) (t1cid_driver_class)
c:/devkitpro/devkitppc/bin/../lib/gcc/powerpc-gekko/4.2.3/../../../../powerpc-gekko/lib\libfreetype.a(pfr.o)
                              c:/devkitpro/devkitppc/bin/../lib/gcc/powerpc-gekko/4.2.3/../../../../powerpc-gekko/lib\libfreetype.a(ftinit.o) (pfr_driver_class)
c:/devkitpro/devkitppc/bin/../lib/gcc/powerpc-gekko/4.2.3/../../../../powerpc-gekko/lib\libfreetype.a(type42.o)
                              c:/devkitpro/devkitppc/bin/../lib/gcc/powerpc-gekko/4.2.3/../../../../powerpc-gekko/lib\libfreetype.a(ftinit.o) (t42_driver_class)
c:/devkitpro/devkitppc/bin/../lib/gcc/powerpc-gekko/4.2.3/../../../../powerpc-gekko/lib\libfreetype.a(winfnt.o)
                              c:/devkitpro/devkitppc/bin/../lib/gcc/powerpc-gekko/4.2.3/../../../../powerpc-gekko/lib\libfreetype.a(ftinit.o) (winfnt_driver_class)
c:/devkitpro/devkitppc/bin/../lib/gcc/powerpc-gekko/4.2.3/../../../../powerpc-gekko/lib\libfreetype.a(pcf.o)
                              c:/devkitpro/devkitppc/bin/../lib/gcc/powerpc-gekko/4.2.3/../../../../powerpc-gekko/lib\libfreetype.a(ftinit.o) (pcf_driver_class)
c:/devkitpro/devkitppc/bin/../lib/gcc/powerpc-gekko/4.2.3/../../../../powerpc-gekko/lib\libfreetype.a(bdf.o)
                              c:/devkitpro/devkitppc/bin/../lib/gcc/powerpc-gekko/4.2.3/../../../../powerpc-gekko/lib\libfreetype.a(ftinit.o) (bdf_driver_class)
c:/devkitpro/devkitppc/bin/../lib/gcc/powerpc-gekko/4.2.3/../../../../powerpc-gekko/lib\libfreetype.a(sfnt.o)
                              c:/devkitpro/devkitppc/bin/../lib/gcc/powerpc-gekko/4.2.3/../../../../powerpc-gekko/lib\libfreetype.a(ftinit.o) (sfnt_module_class)
c:/devkitpro/devkitppc/bin/../lib/gcc/powerpc-gekko/4.2.3/../../../../powerpc-gekko/lib\libfreetype.a(autofit.o)
                              c:/devkitpro/devkitppc/bin/../lib/gcc/powerpc-gekko/4.2.3/../../../../powerpc-gekko/lib\libfreetype.a(ftinit.o) (autofit_module_class)
c:/devkitpro/devkitppc/bin/../lib/gcc/powerpc-gekko/4.2.3/../../../../powerpc-gekko/lib\libfreetype.a(pshinter.o)
                              c:/devkitpro/devkitppc/bin/../lib/gcc/powerpc-gekko/4.2.3/../../../../powerpc-gekko/lib\libfreetype.a(ftinit.o) (pshinter_module_class)
c:/devkitpro/devkitppc/bin/../lib/gcc/powerpc-gekko/4.2.3/../../../../powerpc-gekko/lib\libfreetype.a(raster.o)
                              c:/devkitpro/devkitppc/bin/../lib/gcc/powerpc-gekko/4.2.3/../../../../powerpc-gekko/lib\libfreetype.a(ftinit.o) (ft_raster1_renderer_class)
c:/devkitpro/devkitppc/bin/../lib/gcc/powerpc-gekko/4.2.3/../../../../powerpc-gekko/lib\libfreetype.a(smooth.o)
                              c:/devkitpro/devkitppc/bin/../lib/gcc/powerpc-gekko/4.2.3/../../../../powerpc-gekko/lib\libfreetype.a(ftinit.o) (ft_smooth_lcdv_renderer_class)
c:/devkitpro/devkitppc/bin/../lib/gcc/powerpc-gekko/4.2.3/../../../../powerpc-gekko/lib\libfreetype.a(ftgzip.o)
                              c:/devkitpro/devkitppc/bin/../lib/gcc/powerpc-gekko/4.2.3/../../../../powerpc-gekko/lib\libfreetype.a(pcf.o) (FT_Stream_OpenGzip)
c:/devkitpro/devkitppc/bin/../lib/gcc/powerpc-gekko/4.2.3/../../../../powerpc-gekko/lib\libfreetype.a(ftlzw.o)
                              c:/devkitpro/devkitppc/bin/../lib/gcc/powerpc-gekko/4.2.3/../../../../powerpc-gekko/lib\libfreetype.a(pcf.o) (FT_Stream_OpenLZW)
c:/devkitpro/devkitppc/bin/../lib/gcc/powerpc-gekko/4.2.3/../../../../powerpc-gekko/lib\libfreetype.a(psaux.o)
                              c:/devkitpro/devkitppc/bin/../lib/gcc/powerpc-gekko/4.2.3/../../../../powerpc-gekko/lib\libfreetype.a(ftinit.o) (psaux_module_class)
c:/devkitpro/devkitppc/bin/../lib/gcc/powerpc-gekko/4.2.3/../../../../powerpc-gekko/lib\libfreetype.a(psnames.o)
                              c:/devkitpro/devkitppc/bin/../lib/gcc/powerpc-gekko/4.2.3/../../../../powerpc-gekko/lib\libfreetype.a(ftinit.o) (psnames_module_class)
c:/devkitpro/devkitppc/bin/../lib/gcc/powerpc-gekko/4.2.3/../../../../powerpc-gekko/lib\libfreetype.a(ftsystem.o)
                              c:/devkitpro/devkitppc/bin/../lib/gcc/powerpc-gekko/4.2.3/../../../../powerpc-gekko/lib\libfreetype.a(ftbase.o) (FT_Stream_Open)
c:/devkitpro/devkitppc/bin/../lib/gcc/powerpc-gekko/4.2.3/../../../../powerpc-gekko/lib\libfreetype.a(ftglyph.o)
                              c:/devkitpro/devkitppc/bin/../lib/gcc/powerpc-gekko/4.2.3/../../../../powerpc-gekko/lib\libfreetype.a(cff.o) (FT_Matrix_Multiply)
c:/devkitpro/devkitppc/bin/../lib/gcc/powerpc-gekko/4.2.3/../../../../powerpc-gekko/lib\libfreetype.a(ftbitmap.o)
                              c:/devkitpro/devkitppc/bin/../lib/gcc/powerpc-gekko/4.2.3/../../../../powerpc-gekko/lib\libfreetype.a(ftglyph.o) (FT_Bitmap_New)
c:/devkitpro/devkitppc/bin/../lib/gcc/powerpc-gekko/4.2.3/../../../../powerpc-gekko/lib\libjpeg.a(jpgogc.o)
                              template.o (JPEG_Decompress)
c:/devkitpro/devkitppc/bin/../lib/gcc/powerpc-gekko/4.2.3/../../../../powerpc-gekko/lib\libjpeg.a(jmemsrc.o)
                              c:/devkitpro/devkitppc/bin/../lib/gcc/powerpc-gekko/4.2.3/../../../../powerpc-gekko/lib\libjpeg.a(jpgogc.o) (jpeg_memory_src)
c:/devkitpro/devkitppc/bin/../lib/gcc/powerpc-gekko/4.2.3/../../../../powerpc-gekko/lib\libjpeg.a(jdapimin.o)
                              c:/devkitpro/devkitppc/bin/../lib/gcc/powerpc-gekko/4.2.3/../../../../powerpc-gekko/lib\libjpeg.a(jpgogc.o) (jpeg_CreateDecompress)
c:/devkitpro/devkitppc/bin/../lib/gcc/powerpc-gekko/4.2.3/../../../../powerpc-gekko/lib\libjpeg.a(jdapistd.o)
                              c:/devkitpro/devkitppc/bin/../lib/gcc/powerpc-gekko/4.2.3/../../../../powerpc-gekko/lib\libjpeg.a(jpgogc.o) (jpeg_start_decompress)
c:/devkitpro/devkitppc/bin/../lib/gcc/powerpc-gekko/4.2.3/../../../../powerpc-gekko/lib\libjpeg.a(jdinput.o)
                              c:/devkitpro/devkitppc/bin/../lib/gcc/powerpc-gekko/4.2.3/../../../../powerpc-gekko/lib\libjpeg.a(jdapimin.o) (jinit_input_controller)
c:/devkitpro/devkitppc/bin/../lib/gcc/powerpc-gekko/4.2.3/../../../../powerpc-gekko/lib\libjpeg.a(jdmarker.o)
                              c:/devkitpro/devkitppc/bin/../lib/gcc/powerpc-gekko/4.2.3/../../../../powerpc-gekko/lib\libjpeg.a(jmemsrc.o) (jpeg_resync_to_restart)
c:/devkitpro/devkitppc/bin/../lib/gcc/powerpc-gekko/4.2.3/../../../../powerpc-gekko/lib\libjpeg.a(jdmaster.o)
                              c:/devkitpro/devkitppc/bin/../lib/gcc/powerpc-gekko/4.2.3/../../../../powerpc-gekko/lib\libjpeg.a(jpgogc.o) (jpeg_calc_output_dimensions)
c:/devkitpro/devkitppc/bin/../lib/gcc/powerpc-gekko/4.2.3/../../../../powerpc-gekko/lib\libjpeg.a(jdmerge.o)
                              c:/devkitpro/devkitppc/bin/../lib/gcc/powerpc-gekko/4.2.3/../../../../powerpc-gekko/lib\libjpeg.a(jdmaster.o) (jinit_merged_upsampler)
c:/devkitpro/devkitppc/bin/../lib/gcc/powerpc-gekko/4.2.3/../../../../powerpc-gekko/lib\libjpeg.a(jdphuff.o)
                              c:/devkitpro/devkitppc/bin/../lib/gcc/powerpc-gekko/4.2.3/../../../../powerpc-gekko/lib\libjpeg.a(jdmaster.o) (jinit_phuff_decoder)
c:/devkitpro/devkitppc/bin/../lib/gcc/powerpc-gekko/4.2.3/../../../../powerpc-gekko/lib\libjpeg.a(jdpostct.o)
                              c:/devkitpro/devkitppc/bin/../lib/gcc/powerpc-gekko/4.2.3/../../../../powerpc-gekko/lib\libjpeg.a(jdmaster.o) (jinit_d_post_controller)
c:/devkitpro/devkitppc/bin/../lib/gcc/powerpc-gekko/4.2.3/../../../../powerpc-gekko/lib\libjpeg.a(jdsample.o)
                              c:/devkitpro/devkitppc/bin/../lib/gcc/powerpc-gekko/4.2.3/../../../../powerpc-gekko/lib\libjpeg.a(jdmaster.o) (jinit_upsampler)
c:/devkitpro/devkitppc/bin/../lib/gcc/powerpc-gekko/4.2.3/../../../../powerpc-gekko/lib\libjpeg.a(jerror.o)
                              c:/devkitpro/devkitppc/bin/../lib/gcc/powerpc-gekko/4.2.3/../../../../powerpc-gekko/lib\libjpeg.a(jpgogc.o) (jpeg_std_error)
c:/devkitpro/devkitppc/bin/../lib/gcc/powerpc-gekko/4.2.3/../../../../powerpc-gekko/lib\libjpeg.a(jmemmgr.o)
                              c:/devkitpro/devkitppc/bin/../lib/gcc/powerpc-gekko/4.2.3/../../../../powerpc-gekko/lib\libjpeg.a(jdapimin.o) (jinit_memory_mgr)
c:/devkitpro/devkitppc/bin/../lib/gcc/powerpc-gekko/4.2.3/../../../../powerpc-gekko/lib\libjpeg.a(jmemnobs.o)
                              c:/devkitpro/devkitppc/bin/../lib/gcc/powerpc-gekko/4.2.3/../../../../powerpc-gekko/lib\libjpeg.a(jmemmgr.o) (jpeg_get_small)
c:/devkitpro/devkitppc/bin/../lib/gcc/powerpc-gekko/4.2.3/../../../../powerpc-gekko/lib\libjpeg.a(jquant1.o)
                              c:/devkitpro/devkitppc/bin/../lib/gcc/powerpc-gekko/4.2.3/../../../../powerpc-gekko/lib\libjpeg.a(jdmaster.o) (jinit_1pass_quantizer)
c:/devkitpro/devkitppc/bin/../lib/gcc/powerpc-gekko/4.2.3/../../../../powerpc-gekko/lib\libjpeg.a(jquant2.o)
                              c:/devkitpro/devkitppc/bin/../lib/gcc/powerpc-gekko/4.2.3/../../../../powerpc-gekko/lib\libjpeg.a(jdmaster.o) (jinit_2pass_quantizer)
c:/devkitpro/devkitppc/bin/../lib/gcc/powerpc-gekko/4.2.3/../../../../powerpc-gekko/lib\libjpeg.a(jutils.o)
                              c:/devkitpro/devkitppc/bin/../lib/gcc/powerpc-gekko/4.2.3/../../../../powerpc-gekko/lib\libjpeg.a(jdmarker.o) (jpeg_natural_order)
c:/devkitpro/devkitppc/bin/../lib/gcc/powerpc-gekko/4.2.3/../../../../powerpc-gekko/lib\libjpeg.a(jcomapi.o)
                              c:/devkitpro/devkitppc/bin/../lib/gcc/powerpc-gekko/4.2.3/../../../../powerpc-gekko/lib\libjpeg.a(jdapimin.o) (jpeg_abort)
c:/devkitpro/devkitppc/bin/../lib/gcc/powerpc-gekko/4.2.3/../../../../powerpc-gekko/lib\libjpeg.a(jdcoefct.o)
                              c:/devkitpro/devkitppc/bin/../lib/gcc/powerpc-gekko/4.2.3/../../../../powerpc-gekko/lib\libjpeg.a(jdmaster.o) (jinit_d_coef_controller)
c:/devkitpro/devkitppc/bin/../lib/gcc/powerpc-gekko/4.2.3/../../../../powerpc-gekko/lib\libjpeg.a(jdcolor.o)
                              c:/devkitpro/devkitppc/bin/../lib/gcc/powerpc-gekko/4.2.3/../../../../powerpc-gekko/lib\libjpeg.a(jdmaster.o) (jinit_color_deconverter)
c:/devkitpro/devkitppc/bin/../lib/gcc/powerpc-gekko/4.2.3/../../../../powerpc-gekko/lib\libjpeg.a(jddctmgr.o)
                              c:/devkitpro/devkitppc/bin/../lib/gcc/powerpc-gekko/4.2.3/../../../../powerpc-gekko/lib\libjpeg.a(jdmaster.o) (jinit_inverse_dct)
c:/devkitpro/devkitppc/bin/../lib/gcc/powerpc-gekko/4.2.3/../../../../powerpc-gekko/lib\libjpeg.a(jdhuff.o)
                              c:/devkitpro/devkitppc/bin/../lib/gcc/powerpc-gekko/4.2.3/../../../../powerpc-gekko/lib\libjpeg.a(jdphuff.o) (jpeg_make_d_derived_tbl)
c:/devkitpro/devkitppc/bin/../lib/gcc/powerpc-gekko/4.2.3/../../../../powerpc-gekko/lib\libjpeg.a(jdmainct.o)
                              c:/devkitpro/devkitppc/bin/../lib/gcc/powerpc-gekko/4.2.3/../../../../powerpc-gekko/lib\libjpeg.a(jdmaster.o) (jinit_d_main_controller)
c:/devkitpro/devkitppc/bin/../lib/gcc/powerpc-gekko/4.2.3/../../../../powerpc-gekko/lib\libjpeg.a(jidctflt.o)
                              c:/devkitpro/devkitppc/bin/../lib/gcc/powerpc-gekko/4.2.3/../../../../powerpc-gekko/lib\libjpeg.a(jddctmgr.o) (jpeg_idct_float)
c:/devkitpro/devkitppc/bin/../lib/gcc/powerpc-gekko/4.2.3/../../../../powerpc-gekko/lib\libjpeg.a(jidctfst.o)
                              c:/devkitpro/devkitppc/bin/../lib/gcc/powerpc-gekko/4.2.3/../../../../powerpc-gekko/lib\libjpeg.a(jddctmgr.o) (jpeg_idct_ifast)
c:/devkitpro/devkitppc/bin/../lib/gcc/powerpc-gekko/4.2.3/../../../../powerpc-gekko/lib\libjpeg.a(jidctint.o)
                              c:/devkitpro/devkitppc/bin/../lib/gcc/powerpc-gekko/4.2.3/../../../../powerpc-gekko/lib\libjpeg.a(jddctmgr.o) (jpeg_idct_islow)
c:/devkitpro/devkitppc/bin/../lib/gcc/powerpc-gekko/4.2.3/../../../../powerpc-gekko/lib\libjpeg.a(jidctred.o)
                              c:/devkitpro/devkitppc/bin/../lib/gcc/powerpc-gekko/4.2.3/../../../../powerpc-gekko/lib\libjpeg.a(jddctmgr.o) (jpeg_idct_4x4)
c:/devkitpro/devkitppc/bin/../lib/gcc/powerpc-gekko/4.2.3\libgcc.a(_udivdi3.o)
                              c:/devkitPro/libogc/lib/cube\libogc.a(system.o) (__udivdi3)
c:/devkitpro/devkitppc/bin/../lib/gcc/powerpc-gekko/4.2.3/../../../../powerpc-gekko/lib\libsysbase.a(abort.o)
                              c:/devkitPro/libogc/lib/cube\libmad.a(layer3.o) (abort)
c:/devkitpro/devkitppc/bin/../lib/gcc/powerpc-gekko/4.2.3/../../../../powerpc-gekko/lib\libsysbase.a(iosupport.o)
                              c:/devkitPro/libogc/lib/cube\libogc.a(console.o) (devoptab_list)
c:/devkitpro/devkitppc/bin/../lib/gcc/powerpc-gekko/4.2.3/../../../../powerpc-gekko/lib\libsysbase.a(_exit.o)
                              c:/devkitpro/devkitppc/bin/../lib/gcc/powerpc-gekko/4.2.3/../../../../powerpc-gekko/lib\libsysbase.a(abort.o) (_exit)
c:/devkitpro/devkitppc/bin/../lib/gcc/powerpc-gekko/4.2.3/../../../../powerpc-gekko/lib\libsysbase.a(build_argv.o)
                              c:/devkitPro/libogc/lib/cube\libogc.a(argv.o) (build_argv)
c:/devkitpro/devkitppc/bin/../lib/gcc/powerpc-gekko/4.2.3/../../../../powerpc-gekko/lib\libsysbase.a(syscall_support.o)
                              c:/devkitPro/libogc/lib/cube\libogc.a(system.o) (__syscalls)
c:/devkitpro/devkitppc/bin/../lib/gcc/powerpc-gekko/4.2.3/../../../../powerpc-gekko/lib\libc.a(lib_a-atol.o)
                              c:/devkitpro/devkitppc/bin/../lib/gcc/powerpc-gekko/4.2.3/../../../../powerpc-gekko/lib\libfreetype.a(type1cid.o) (atol)
c:/devkitpro/devkitppc/bin/../lib/gcc/powerpc-gekko/4.2.3/../../../../powerpc-gekko/lib\libc.a(lib_a-calloc.o)
                              c:/devkitPro/libogc/lib/cube\libmad.a(layer3.o) (calloc)
c:/devkitpro/devkitppc/bin/../lib/gcc/powerpc-gekko/4.2.3/../../../../powerpc-gekko/lib\libc.a(lib_a-callocr.o)
                              c:/devkitpro/devkitppc/bin/../lib/gcc/powerpc-gekko/4.2.3/../../../../powerpc-gekko/lib\libc.a(lib_a-calloc.o) (_calloc_r)
c:/devkitpro/devkitppc/bin/../lib/gcc/powerpc-gekko/4.2.3/../../../../powerpc-gekko/lib\libc.a(lib_a-ctime.o)
                              template.o (ctime)
c:/devkitpro/devkitppc/bin/../lib/gcc/powerpc-gekko/4.2.3/../../../../powerpc-gekko/lib\libc.a(lib_a-ctype_.o)
                              c:/devkitpro/devkitppc/bin/../lib/gcc/powerpc-gekko/4.2.3/../../../../powerpc-gekko/lib\libfreetype.a(type1.o) (_ctype_)
c:/devkitpro/devkitppc/bin/../lib/gcc/powerpc-gekko/4.2.3/../../../../powerpc-gekko/lib\libc.a(lib_a-errno.o)
                              c:/devkitpro/devkitppc/bin/../lib/gcc/powerpc-gekko/4.2.3/../../../../powerpc-gekko/lib\libm.a(lib_a-s_sine.o) (__errno)
c:/devkitpro/devkitppc/bin/../lib/gcc/powerpc-gekko/4.2.3/../../../../powerpc-gekko/lib\libc.a(lib_a-exit.o)
                              c:/devkitpro/devkitppc/bin/../lib/gcc/powerpc-gekko/4.2.3/../../../../powerpc-gekko/lib/crtmain.o (exit)
c:/devkitpro/devkitppc/bin/../lib/gcc/powerpc-gekko/4.2.3/../../../../powerpc-gekko/lib\libc.a(lib_a-fclose.o)
                              c:/devkitpro/devkitppc/bin/../lib/gcc/powerpc-gekko/4.2.3/../../../../powerpc-gekko/lib\libfreetype.a(ftsystem.o) (fclose)
c:/devkitpro/devkitppc/bin/../lib/gcc/powerpc-gekko/4.2.3/../../../../powerpc-gekko/lib\libc.a(lib_a-fflush.o)
                              c:/devkitpro/devkitppc/bin/../lib/gcc/powerpc-gekko/4.2.3/../../../../powerpc-gekko/lib\libc.a(lib_a-fclose.o) (_fflush_r)
c:/devkitpro/devkitppc/bin/../lib/gcc/powerpc-gekko/4.2.3/../../../../powerpc-gekko/lib\libc.a(lib_a-findfp.o)
                              c:/devkitpro/devkitppc/bin/../lib/gcc/powerpc-gekko/4.2.3/../../../../powerpc-gekko/lib\libc.a(lib_a-fclose.o) (__sfp_lock_release)
c:/devkitpro/devkitppc/bin/../lib/gcc/powerpc-gekko/4.2.3/../../../../powerpc-gekko/lib\libc.a(lib_a-fopen.o)
                              c:/devkitpro/devkitppc/bin/../lib/gcc/powerpc-gekko/4.2.3/../../../../powerpc-gekko/lib\libfreetype.a(ftsystem.o) (fopen)
c:/devkitpro/devkitppc/bin/../lib/gcc/powerpc-gekko/4.2.3/../../../../powerpc-gekko/lib\libc.a(lib_a-fprintf.o)
                              c:/devkitpro/devkitppc/bin/../lib/gcc/powerpc-gekko/4.2.3/../../../../powerpc-gekko/lib\libjpeg.a(jerror.o) (fprintf)
c:/devkitpro/devkitppc/bin/../lib/gcc/powerpc-gekko/4.2.3/../../../../powerpc-gekko/lib\libc.a(lib_a-fread.o)
                              c:/devkitpro/devkitppc/bin/../lib/gcc/powerpc-gekko/4.2.3/../../../../powerpc-gekko/lib\libfreetype.a(ftsystem.o) (fread)
c:/devkitpro/devkitppc/bin/../lib/gcc/powerpc-gekko/4.2.3/../../../../powerpc-gekko/lib\libc.a(lib_a-freer.o)
                              c:/devkitpro/devkitppc/bin/../lib/gcc/powerpc-gekko/4.2.3/../../../../powerpc-gekko/lib\libc.a(lib_a-fclose.o) (_free_r)
c:/devkitpro/devkitppc/bin/../lib/gcc/powerpc-gekko/4.2.3/../../../../powerpc-gekko/lib\libc.a(lib_a-fseek.o)
                              c:/devkitpro/devkitppc/bin/../lib/gcc/powerpc-gekko/4.2.3/../../../../powerpc-gekko/lib\libc.a(lib_a-fopen.o) (_fseek_r)
c:/devkitpro/devkitppc/bin/../lib/gcc/powerpc-gekko/4.2.3/../../../../powerpc-gekko/lib\libc.a(lib_a-ftell.o)
                              c:/devkitpro/devkitppc/bin/../lib/gcc/powerpc-gekko/4.2.3/../../../../powerpc-gekko/lib\libfreetype.a(ftsystem.o) (ftell)
c:/devkitpro/devkitppc/bin/../lib/gcc/powerpc-gekko/4.2.3/../../../../powerpc-gekko/lib\libc.a(lib_a-fwalk.o)
                              c:/devkitpro/devkitppc/bin/../lib/gcc/powerpc-gekko/4.2.3/../../../../powerpc-gekko/lib\libc.a(lib_a-fflush.o) (_fwalk_reent)
c:/devkitpro/devkitppc/bin/../lib/gcc/powerpc-gekko/4.2.3/../../../../powerpc-gekko/lib\libc.a(lib_a-getenv.o)
                              c:/devkitpro/devkitppc/bin/../lib/gcc/powerpc-gekko/4.2.3/../../../../powerpc-gekko/lib\libjpeg.a(jmemmgr.o) (getenv)
c:/devkitpro/devkitppc/bin/../lib/gcc/powerpc-gekko/4.2.3/../../../../powerpc-gekko/lib\libc.a(lib_a-getenv_r.o)
                              c:/devkitpro/devkitppc/bin/../lib/gcc/powerpc-gekko/4.2.3/../../../../powerpc-gekko/lib\libc.a(lib_a-getenv.o) (_findenv_r)
c:/devkitpro/devkitppc/bin/../lib/gcc/powerpc-gekko/4.2.3/../../../../powerpc-gekko/lib\libc.a(lib_a-impure.o)
                              c:/devkitPro/libogc/lib/cube\libogc.a(console.o) (_impure_ptr)
c:/devkitpro/devkitppc/bin/../lib/gcc/powerpc-gekko/4.2.3/../../../../powerpc-gekko/lib\libc.a(lib_a-lcltime.o)
                              c:/devkitpro/devkitppc/bin/../lib/gcc/powerpc-gekko/4.2.3/../../../../powerpc-gekko/lib\libc.a(lib_a-ctime.o) (localtime)
c:/devkitpro/devkitppc/bin/../lib/gcc/powerpc-gekko/4.2.3/../../../../powerpc-gekko/lib\libc.a(lib_a-lcltime_r.o)
                              c:/devkitpro/devkitppc/bin/../lib/gcc/powerpc-gekko/4.2.3/../../../../powerpc-gekko/lib\libc.a(lib_a-lcltime.o) (localtime_r)
c:/devkitpro/devkitppc/bin/../lib/gcc/powerpc-gekko/4.2.3/../../../../powerpc-gekko/lib\libc.a(lib_a-makebuf.o)
                              c:/devkitpro/devkitppc/bin/../lib/gcc/powerpc-gekko/4.2.3/../../../../powerpc-gekko/lib\libc.a(lib_a-fseek.o) (__smakebuf_r)
c:/devkitpro/devkitppc/bin/../lib/gcc/powerpc-gekko/4.2.3/../../../../powerpc-gekko/lib\libc.a(lib_a-malign.o)
                              c:/devkitPro/libogc/lib/cube\libogc.a(system.o) (memalign)
c:/devkitpro/devkitppc/bin/../lib/gcc/powerpc-gekko/4.2.3/../../../../powerpc-gekko/lib\libc.a(lib_a-malignr.o)
                              c:/devkitpro/devkitppc/bin/../lib/gcc/powerpc-gekko/4.2.3/../../../../powerpc-gekko/lib\libc.a(lib_a-malign.o) (_memalign_r)
c:/devkitpro/devkitppc/bin/../lib/gcc/powerpc-gekko/4.2.3/../../../../powerpc-gekko/lib\libc.a(lib_a-malloc.o)
                              template.o (free)
c:/devkitpro/devkitppc/bin/../lib/gcc/powerpc-gekko/4.2.3/../../../../powerpc-gekko/lib\libc.a(lib_a-mallocr.o)
                              c:/devkitpro/devkitppc/bin/../lib/gcc/powerpc-gekko/4.2.3/../../../../powerpc-gekko/lib\libc.a(lib_a-callocr.o) (_malloc_r)
c:/devkitpro/devkitppc/bin/../lib/gcc/powerpc-gekko/4.2.3/../../../../powerpc-gekko/lib\libc.a(lib_a-memchr.o)
                              c:/devkitpro/devkitppc/bin/../lib/gcc/powerpc-gekko/4.2.3/../../../../powerpc-gekko/lib\libfreetype.a(sfnt.o) (memchr)
c:/devkitpro/devkitppc/bin/../lib/gcc/powerpc-gekko/4.2.3/../../../../powerpc-gekko/lib\libc.a(lib_a-memcmp.o)
                              c:/devkitPro/libogc/lib/cube\libogc.a(card.o) (memcmp)
c:/devkitpro/devkitppc/bin/../lib/gcc/powerpc-gekko/4.2.3/../../../../powerpc-gekko/lib\libc.a(lib_a-memcpy.o)
                              c:/devkitPro/libogc/lib/cube\libmad.a(mp3player.o) (memcpy)
c:/devkitpro/devkitppc/bin/../lib/gcc/powerpc-gekko/4.2.3/../../../../powerpc-gekko/lib\libc.a(lib_a-memmove.o)
                              c:/devkitPro/libogc/lib/cube\libmad.a(mp3player.o) (memmove)
c:/devkitpro/devkitppc/bin/../lib/gcc/powerpc-gekko/4.2.3/../../../../powerpc-gekko/lib\libc.a(lib_a-memset.o)
                              template.o (memset)
c:/devkitpro/devkitppc/bin/../lib/gcc/powerpc-gekko/4.2.3/../../../../powerpc-gekko/lib\libc.a(lib_a-mktm_r.o)
                              c:/devkitpro/devkitppc/bin/../lib/gcc/powerpc-gekko/4.2.3/../../../../powerpc-gekko/lib\libc.a(lib_a-lcltime_r.o) (_mktm_r)
c:/devkitpro/devkitppc/bin/../lib/gcc/powerpc-gekko/4.2.3/../../../../powerpc-gekko/lib\libc.a(lib_a-printf.o)
                              freetype.o (printf)
c:/devkitpro/devkitppc/bin/../lib/gcc/powerpc-gekko/4.2.3/../../../../powerpc-gekko/lib\libc.a(lib_a-puts.o)
                              c:/devkitPro/libogc/lib/cube\libogc.a(card.o) (puts)
c:/devkitpro/devkitppc/bin/../lib/gcc/powerpc-gekko/4.2.3/../../../../powerpc-gekko/lib\libc.a(lib_a-qsort.o)
                              c:/devkitpro/devkitppc/bin/../lib/gcc/powerpc-gekko/4.2.3/../../../../powerpc-gekko/lib\libfreetype.a(type1.o) (qsort)
c:/devkitpro/devkitppc/bin/../lib/gcc/powerpc-gekko/4.2.3/../../../../powerpc-gekko/lib\libc.a(lib_a-realloc.o)
                              c:/devkitpro/devkitppc/bin/../lib/gcc/powerpc-gekko/4.2.3/../../../../powerpc-gekko/lib\libfreetype.a(ftsystem.o) (realloc)
c:/devkitpro/devkitppc/bin/../lib/gcc/powerpc-gekko/4.2.3/../../../../powerpc-gekko/lib\libc.a(lib_a-reallocr.o)
                              c:/devkitpro/devkitppc/bin/../lib/gcc/powerpc-gekko/4.2.3/../../../../powerpc-gekko/lib\libc.a(lib_a-realloc.o) (_realloc_r)
c:/devkitpro/devkitppc/bin/../lib/gcc/powerpc-gekko/4.2.3/../../../../powerpc-gekko/lib\libc.a(lib_a-reent.o)
                              c:/devkitPro/libogc/lib/cube\libogc.a(newlibc.o) (_wrapup_reent)
c:/devkitpro/devkitppc/bin/../lib/gcc/powerpc-gekko/4.2.3/../../../../powerpc-gekko/lib\libc.a(lib_a-refill.o)
                              c:/devkitpro/devkitppc/bin/../lib/gcc/powerpc-gekko/4.2.3/../../../../powerpc-gekko/lib\libc.a(lib_a-fread.o) (__srefill_r)
c:/devkitpro/devkitppc/bin/../lib/gcc/powerpc-gekko/4.2.3/../../../../powerpc-gekko/lib\libc.a(lib_a-setjmp.o)
                              c:/devkitpro/devkitppc/bin/../lib/gcc/powerpc-gekko/4.2.3/../../../../powerpc-gekko/lib\libfreetype.a(ftbase.o) (setjmp)
c:/devkitpro/devkitppc/bin/../lib/gcc/powerpc-gekko/4.2.3/../../../../powerpc-gekko/lib\libc.a(lib_a-setvbuf.o)
                              c:/devkitPro/libogc/lib/cube\libogc.a(console.o) (setvbuf)
c:/devkitpro/devkitppc/bin/../lib/gcc/powerpc-gekko/4.2.3/../../../../powerpc-gekko/lib\libc.a(lib_a-sprintf.o)
                              template.o (sprintf)
c:/devkitpro/devkitppc/bin/../lib/gcc/powerpc-gekko/4.2.3/../../../../powerpc-gekko/lib\libc.a(lib_a-sscanf.o)
                              c:/devkitpro/devkitppc/bin/../lib/gcc/powerpc-gekko/4.2.3/../../../../powerpc-gekko/lib\libjpeg.a(jmemmgr.o) (sscanf)
c:/devkitpro/devkitppc/bin/../lib/gcc/powerpc-gekko/4.2.3/../../../../powerpc-gekko/lib\libc.a(lib_a-stdio.o)
                              c:/devkitpro/devkitppc/bin/../lib/gcc/powerpc-gekko/4.2.3/../../../../powerpc-gekko/lib\libc.a(lib_a-findfp.o) (__sclose)
c:/devkitpro/devkitppc/bin/../lib/gcc/powerpc-gekko/4.2.3/../../../../powerpc-gekko/lib\libc.a(lib_a-strcat.o)
                              c:/devkitpro/devkitppc/bin/../lib/gcc/powerpc-gekko/4.2.3/../../../../powerpc-gekko/lib\libfreetype.a(ftbase.o) (strcat)
c:/devkitpro/devkitppc/bin/../lib/gcc/powerpc-gekko/4.2.3/../../../../powerpc-gekko/lib\libc.a(lib_a-strcmp.o)
                              c:/devkitpro/devkitppc/bin/../lib/gcc/powerpc-gekko/4.2.3/../../../../powerpc-gekko/lib\libfreetype.a(ftbase.o) (strcmp)
c:/devkitpro/devkitppc/bin/../lib/gcc/powerpc-gekko/4.2.3/../../../../powerpc-gekko/lib\libc.a(lib_a-strcpy.o)
                              freetype.o (strcpy)
c:/devkitpro/devkitppc/bin/../lib/gcc/powerpc-gekko/4.2.3/../../../../powerpc-gekko/lib\libc.a(lib_a-strlen.o)
                              freetype.o (strlen)
c:/devkitpro/devkitppc/bin/../lib/gcc/powerpc-gekko/4.2.3/../../../../powerpc-gekko/lib\libc.a(lib_a-strncasecmp.o)
                              c:/devkitPro/libogc/lib/cube\libogc.a(card.o) (strncasecmp)
c:/devkitpro/devkitppc/bin/../lib/gcc/powerpc-gekko/4.2.3/../../../../powerpc-gekko/lib\libc.a(lib_a-strncmp.o)
                              c:/devkitpro/devkitppc/bin/../lib/gcc/powerpc-gekko/4.2.3/../../../../powerpc-gekko/lib\libfreetype.a(type1.o) (strncmp)
c:/devkitpro/devkitppc/bin/../lib/gcc/powerpc-gekko/4.2.3/../../../../powerpc-gekko/lib\libc.a(lib_a-strncpy.o)
                              c:/devkitpro/devkitppc/bin/../lib/gcc/powerpc-gekko/4.2.3/../../../../powerpc-gekko/lib\libfreetype.a(ftbase.o) (strncpy)
c:/devkitpro/devkitppc/bin/../lib/gcc/powerpc-gekko/4.2.3/../../../../powerpc-gekko/lib\libc.a(lib_a-strnlen.o)
                              c:/devkitPro/libogc/lib/cube\libogc.a(kprintf.o) (strnlen)
c:/devkitpro/devkitppc/bin/../lib/gcc/powerpc-gekko/4.2.3/../../../../powerpc-gekko/lib\libc.a(lib_a-strrchr.o)
                              c:/devkitpro/devkitppc/bin/../lib/gcc/powerpc-gekko/4.2.3/../../../../powerpc-gekko/lib\libfreetype.a(ftbase.o) (strrchr)
c:/devkitpro/devkitppc/bin/../lib/gcc/powerpc-gekko/4.2.3/../../../../powerpc-gekko/lib\libc.a(lib_a-strtol.o)
                              c:/devkitpro/devkitppc/bin/../lib/gcc/powerpc-gekko/4.2.3/../../../../powerpc-gekko/lib\libc.a(lib_a-atol.o) (_strtol_r)
c:/devkitpro/devkitppc/bin/../lib/gcc/powerpc-gekko/4.2.3/../../../../powerpc-gekko/lib\libc.a(lib_a-syswrite.o)
                              c:/devkitPro/libogc/lib/cube\libogc.a(kprintf.o) (write)
c:/devkitpro/devkitppc/bin/../lib/gcc/powerpc-gekko/4.2.3/../../../../powerpc-gekko/lib\libc.a(lib_a-tzlock.o)
                              c:/devkitpro/devkitppc/bin/../lib/gcc/powerpc-gekko/4.2.3/../../../../powerpc-gekko/lib\libc.a(lib_a-mktm_r.o) (__tz_unlock)
c:/devkitpro/devkitppc/bin/../lib/gcc/powerpc-gekko/4.2.3/../../../../powerpc-gekko/lib\libc.a(lib_a-tzvars.o)
                              c:/devkitpro/devkitppc/bin/../lib/gcc/powerpc-gekko/4.2.3/../../../../powerpc-gekko/lib\libc.a(lib_a-mktm_r.o) (_daylight)
c:/devkitpro/devkitppc/bin/../lib/gcc/powerpc-gekko/4.2.3/../../../../powerpc-gekko/lib\libc.a(lib_a-vfprintf.o)
                              c:/devkitpro/devkitppc/bin/../lib/gcc/powerpc-gekko/4.2.3/../../../../powerpc-gekko/lib\libc.a(lib_a-fprintf.o) (_vfprintf_r)
c:/devkitpro/devkitppc/bin/../lib/gcc/powerpc-gekko/4.2.3/../../../../powerpc-gekko/lib\libc.a(lib_a-vfscanf.o)
                              c:/devkitpro/devkitppc/bin/../lib/gcc/powerpc-gekko/4.2.3/../../../../powerpc-gekko/lib\libc.a(lib_a-sscanf.o) (__svfscanf_r)
c:/devkitpro/devkitppc/bin/../lib/gcc/powerpc-gekko/4.2.3/../../../../powerpc-gekko/lib\libc.a(lib_a-wcrtomb.o)
                              c:/devkitpro/devkitppc/bin/../lib/gcc/powerpc-gekko/4.2.3/../../../../powerpc-gekko/lib\libc.a(lib_a-vfprintf.o) (_wcrtomb_r)
c:/devkitpro/devkitppc/bin/../lib/gcc/powerpc-gekko/4.2.3/../../../../powerpc-gekko/lib\libc.a(lib_a-wcsrtombs.o)
                              c:/devkitpro/devkitppc/bin/../lib/gcc/powerpc-gekko/4.2.3/../../../../powerpc-gekko/lib\libc.a(lib_a-vfprintf.o) (_wcsrtombs_r)
c:/devkitpro/devkitppc/bin/../lib/gcc/powerpc-gekko/4.2.3/../../../../powerpc-gekko/lib\libc.a(lib_a-wctomb_r.o)
                              c:/devkitpro/devkitppc/bin/../lib/gcc/powerpc-gekko/4.2.3/../../../../powerpc-gekko/lib\libc.a(lib_a-wcrtomb.o) (_wctomb_r)
c:/devkitpro/devkitppc/bin/../lib/gcc/powerpc-gekko/4.2.3/../../../../powerpc-gekko/lib\libc.a(lib_a-wsetup.o)
                              c:/devkitpro/devkitppc/bin/../lib/gcc/powerpc-gekko/4.2.3/../../../../powerpc-gekko/lib\libc.a(lib_a-vfprintf.o) (__swsetup_r)
c:/devkitpro/devkitppc/bin/../lib/gcc/powerpc-gekko/4.2.3/../../../../powerpc-gekko/lib\libc.a(lib_a-__call_atexit.o)
                              c:/devkitpro/devkitppc/bin/../lib/gcc/powerpc-gekko/4.2.3/../../../../powerpc-gekko/lib\libc.a(lib_a-exit.o) (__call_exitprocs)
c:/devkitpro/devkitppc/bin/../lib/gcc/powerpc-gekko/4.2.3/../../../../powerpc-gekko/lib\libc.a(lib_a-asctime.o)
                              c:/devkitpro/devkitppc/bin/../lib/gcc/powerpc-gekko/4.2.3/../../../../powerpc-gekko/lib\libc.a(lib_a-ctime.o) (asctime)
c:/devkitpro/devkitppc/bin/../lib/gcc/powerpc-gekko/4.2.3/../../../../powerpc-gekko/lib\libc.a(lib_a-asctime_r.o)
                              c:/devkitpro/devkitppc/bin/../lib/gcc/powerpc-gekko/4.2.3/../../../../powerpc-gekko/lib\libc.a(lib_a-asctime.o) (asctime_r)
c:/devkitpro/devkitppc/bin/../lib/gcc/powerpc-gekko/4.2.3/../../../../powerpc-gekko/lib\libc.a(lib_a-dtoa.o)
                              c:/devkitpro/devkitppc/bin/../lib/gcc/powerpc-gekko/4.2.3/../../../../powerpc-gekko/lib\libc.a(lib_a-vfprintf.o) (_dtoa_r)
c:/devkitpro/devkitppc/bin/../lib/gcc/powerpc-gekko/4.2.3/../../../../powerpc-gekko/lib\libc.a(lib_a-environ.o)
                              c:/devkitpro/devkitppc/bin/../lib/gcc/powerpc-gekko/4.2.3/../../../../powerpc-gekko/lib\libc.a(lib_a-getenv_r.o) (environ)
c:/devkitpro/devkitppc/bin/../lib/gcc/powerpc-gekko/4.2.3/../../../../powerpc-gekko/lib\libc.a(lib_a-envlock.o)
                              c:/devkitpro/devkitppc/bin/../lib/gcc/powerpc-gekko/4.2.3/../../../../powerpc-gekko/lib\libc.a(lib_a-getenv_r.o) (__env_unlock)
c:/devkitpro/devkitppc/bin/../lib/gcc/powerpc-gekko/4.2.3/../../../../powerpc-gekko/lib\libc.a(lib_a-flags.o)
                              c:/devkitpro/devkitppc/bin/../lib/gcc/powerpc-gekko/4.2.3/../../../../powerpc-gekko/lib\libc.a(lib_a-fopen.o) (__sflags)
c:/devkitpro/devkitppc/bin/../lib/gcc/powerpc-gekko/4.2.3/../../../../powerpc-gekko/lib\libc.a(lib_a-fvwrite.o)
                              c:/devkitpro/devkitppc/bin/../lib/gcc/powerpc-gekko/4.2.3/../../../../powerpc-gekko/lib\libc.a(lib_a-puts.o) (__sfvwrite_r)
c:/devkitpro/devkitppc/bin/../lib/gcc/powerpc-gekko/4.2.3/../../../../powerpc-gekko/lib\libc.a(lib_a-gettzinfo.o)
                              c:/devkitpro/devkitppc/bin/../lib/gcc/powerpc-gekko/4.2.3/../../../../powerpc-gekko/lib\libc.a(lib_a-mktm_r.o) (__gettzinfo)
c:/devkitpro/devkitppc/bin/../lib/gcc/powerpc-gekko/4.2.3/../../../../powerpc-gekko/lib\libc.a(lib_a-iswspace.o)
                              c:/devkitpro/devkitppc/bin/../lib/gcc/powerpc-gekko/4.2.3/../../../../powerpc-gekko/lib\libc.a(lib_a-vfscanf.o) (iswspace)
c:/devkitpro/devkitppc/bin/../lib/gcc/powerpc-gekko/4.2.3/../../../../powerpc-gekko/lib\libc.a(lib_a-jp2uc.o)
                              c:/devkitpro/devkitppc/bin/../lib/gcc/powerpc-gekko/4.2.3/../../../../powerpc-gekko/lib\libc.a(lib_a-iswspace.o) (__jp2uc)
c:/devkitpro/devkitppc/bin/../lib/gcc/powerpc-gekko/4.2.3/../../../../powerpc-gekko/lib\libc.a(lib_a-locale.o)
                              c:/devkitpro/devkitppc/bin/../lib/gcc/powerpc-gekko/4.2.3/../../../../powerpc-gekko/lib\libc.a(lib_a-vfprintf.o) (_localeconv_r)
c:/devkitpro/devkitppc/bin/../lib/gcc/powerpc-gekko/4.2.3/../../../../powerpc-gekko/lib\libc.a(lib_a-mbrtowc.o)
                              c:/devkitpro/devkitppc/bin/../lib/gcc/powerpc-gekko/4.2.3/../../../../powerpc-gekko/lib\libc.a(lib_a-vfscanf.o) (_mbrtowc_r)
c:/devkitpro/devkitppc/bin/../lib/gcc/powerpc-gekko/4.2.3/../../../../powerpc-gekko/lib\libc.a(lib_a-mbtowc_r.o)
                              c:/devkitpro/devkitppc/bin/../lib/gcc/powerpc-gekko/4.2.3/../../../../powerpc-gekko/lib\libc.a(lib_a-vfprintf.o) (_mbtowc_r)
c:/devkitpro/devkitppc/bin/../lib/gcc/powerpc-gekko/4.2.3/../../../../powerpc-gekko/lib\libc.a(lib_a-mprec.o)
                              c:/devkitpro/devkitppc/bin/../lib/gcc/powerpc-gekko/4.2.3/../../../../powerpc-gekko/lib\libc.a(lib_a-dtoa.o) (_Bfree)
c:/devkitpro/devkitppc/bin/../lib/gcc/powerpc-gekko/4.2.3/../../../../powerpc-gekko/lib\libc.a(lib_a-s_isinfd.o)
                              c:/devkitpro/devkitppc/bin/../lib/gcc/powerpc-gekko/4.2.3/../../../../powerpc-gekko/lib\libc.a(lib_a-vfprintf.o) (__isinfd)
c:/devkitpro/devkitppc/bin/../lib/gcc/powerpc-gekko/4.2.3/../../../../powerpc-gekko/lib\libc.a(lib_a-s_isnand.o)
                              c:/devkitpro/devkitppc/bin/../lib/gcc/powerpc-gekko/4.2.3/../../../../powerpc-gekko/lib\libc.a(lib_a-vfprintf.o) (__isnand)
c:/devkitpro/devkitppc/bin/../lib/gcc/powerpc-gekko/4.2.3/../../../../powerpc-gekko/lib\libc.a(lib_a-sccl.o)
                              c:/devkitpro/devkitppc/bin/../lib/gcc/powerpc-gekko/4.2.3/../../../../powerpc-gekko/lib\libc.a(lib_a-vfscanf.o) (__sccl)
c:/devkitpro/devkitppc/bin/../lib/gcc/powerpc-gekko/4.2.3/../../../../powerpc-gekko/lib\libc.a(lib_a-sf_nan.o)
                              c:/devkitpro/devkitppc/bin/../lib/gcc/powerpc-gekko/4.2.3/../../../../powerpc-gekko/lib\libc.a(lib_a-vfscanf.o) (nanf)
c:/devkitpro/devkitppc/bin/../lib/gcc/powerpc-gekko/4.2.3/../../../../powerpc-gekko/lib\libc.a(lib_a-siprintf.o)
                              c:/devkitpro/devkitppc/bin/../lib/gcc/powerpc-gekko/4.2.3/../../../../powerpc-gekko/lib\libc.a(lib_a-asctime_r.o) (siprintf)
c:/devkitpro/devkitppc/bin/../lib/gcc/powerpc-gekko/4.2.3/../../../../powerpc-gekko/lib\libc.a(lib_a-strchr.o)
                              c:/devkitpro/devkitppc/bin/../lib/gcc/powerpc-gekko/4.2.3/../../../../powerpc-gekko/lib\libc.a(lib_a-strrchr.o) (strchr)
c:/devkitpro/devkitppc/bin/../lib/gcc/powerpc-gekko/4.2.3/../../../../powerpc-gekko/lib\libc.a(lib_a-strtod.o)
                              c:/devkitpro/devkitppc/bin/../lib/gcc/powerpc-gekko/4.2.3/../../../../powerpc-gekko/lib\libc.a(lib_a-vfscanf.o) (_strtod_r)
c:/devkitpro/devkitppc/bin/../lib/gcc/powerpc-gekko/4.2.3/../../../../powerpc-gekko/lib\libc.a(lib_a-strtoll_r.o)
                              c:/devkitpro/devkitppc/bin/../lib/gcc/powerpc-gekko/4.2.3/../../../../powerpc-gekko/lib\libc.a(lib_a-vfscanf.o) (_strtoll_r)
c:/devkitpro/devkitppc/bin/../lib/gcc/powerpc-gekko/4.2.3/../../../../powerpc-gekko/lib\libc.a(lib_a-strtoul.o)
                              c:/devkitpro/devkitppc/bin/../lib/gcc/powerpc-gekko/4.2.3/../../../../powerpc-gekko/lib\libc.a(lib_a-vfscanf.o) (_strtoul_r)
c:/devkitpro/devkitppc/bin/../lib/gcc/powerpc-gekko/4.2.3/../../../../powerpc-gekko/lib\libc.a(lib_a-strtoull_r.o)
                              c:/devkitpro/devkitppc/bin/../lib/gcc/powerpc-gekko/4.2.3/../../../../powerpc-gekko/lib\libc.a(lib_a-vfscanf.o) (_strtoull_r)
c:/devkitpro/devkitppc/bin/../lib/gcc/powerpc-gekko/4.2.3/../../../../powerpc-gekko/lib\libc.a(lib_a-ungetc.o)
                              c:/devkitpro/devkitppc/bin/../lib/gcc/powerpc-gekko/4.2.3/../../../../powerpc-gekko/lib\libc.a(lib_a-vfscanf.o) (_ungetc_r)
c:/devkitpro/devkitppc/bin/../lib/gcc/powerpc-gekko/4.2.3/../../../../powerpc-gekko/lib\libc.a(lib_a-vfiprintf.o)
                              c:/devkitpro/devkitppc/bin/../lib/gcc/powerpc-gekko/4.2.3/../../../../powerpc-gekko/lib\libc.a(lib_a-siprintf.o) (_vfiprintf_r)
c:/devkitpro/devkitppc/bin/../lib/gcc/powerpc-gekko/4.2.3/../../../../powerpc-gekko/lib\libc.a(lib_a-gdtoa-gethex.o)
                              c:/devkitpro/devkitppc/bin/../lib/gcc/powerpc-gekko/4.2.3/../../../../powerpc-gekko/lib\libc.a(lib_a-strtod.o) (__gethex)
c:/devkitpro/devkitppc/bin/../lib/gcc/powerpc-gekko/4.2.3/../../../../powerpc-gekko/lib\libc.a(lib_a-gdtoa-hexnan.o)
                              c:/devkitpro/devkitppc/bin/../lib/gcc/powerpc-gekko/4.2.3/../../../../powerpc-gekko/lib\libc.a(lib_a-strtod.o) (__hexnan)
c:/devkitpro/devkitppc/bin/../lib/gcc/powerpc-gekko/4.2.3/../../../../powerpc-gekko/lib\libsysbase.a(close.o)
                              c:/devkitpro/devkitppc/bin/../lib/gcc/powerpc-gekko/4.2.3/../../../../powerpc-gekko/lib\libc.a(lib_a-stdio.o) (_close_r)
c:/devkitpro/devkitppc/bin/../lib/gcc/powerpc-gekko/4.2.3/../../../../powerpc-gekko/lib\libsysbase.a(fstat.o)
                              c:/devkitpro/devkitppc/bin/../lib/gcc/powerpc-gekko/4.2.3/../../../../powerpc-gekko/lib\libc.a(lib_a-fseek.o) (_fstat_r)
c:/devkitpro/devkitppc/bin/../lib/gcc/powerpc-gekko/4.2.3/../../../../powerpc-gekko/lib\libsysbase.a(isatty.o)
                              c:/devkitpro/devkitppc/bin/../lib/gcc/powerpc-gekko/4.2.3/../../../../powerpc-gekko/lib\libc.a(lib_a-makebuf.o) (isatty)
c:/devkitpro/devkitppc/bin/../lib/gcc/powerpc-gekko/4.2.3/../../../../powerpc-gekko/lib\libsysbase.a(lseek.o)
                              c:/devkitpro/devkitppc/bin/../lib/gcc/powerpc-gekko/4.2.3/../../../../powerpc-gekko/lib\libc.a(lib_a-stdio.o) (_lseek_r)
c:/devkitpro/devkitppc/bin/../lib/gcc/powerpc-gekko/4.2.3/../../../../powerpc-gekko/lib\libsysbase.a(open.o)
                              c:/devkitpro/devkitppc/bin/../lib/gcc/powerpc-gekko/4.2.3/../../../../powerpc-gekko/lib\libc.a(lib_a-fopen.o) (_open_r)
c:/devkitpro/devkitppc/bin/../lib/gcc/powerpc-gekko/4.2.3/../../../../powerpc-gekko/lib\libsysbase.a(read.o)
                              c:/devkitpro/devkitppc/bin/../lib/gcc/powerpc-gekko/4.2.3/../../../../powerpc-gekko/lib\libc.a(lib_a-stdio.o) (_read_r)
c:/devkitpro/devkitppc/bin/../lib/gcc/powerpc-gekko/4.2.3/../../../../powerpc-gekko/lib\libsysbase.a(sbrk.o)
                              c:/devkitpro/devkitppc/bin/../lib/gcc/powerpc-gekko/4.2.3/../../../../powerpc-gekko/lib\libc.a(lib_a-freer.o) (_sbrk_r)
c:/devkitpro/devkitppc/bin/../lib/gcc/powerpc-gekko/4.2.3/../../../../powerpc-gekko/lib\libsysbase.a(write.o)
                              c:/devkitpro/devkitppc/bin/../lib/gcc/powerpc-gekko/4.2.3/../../../../powerpc-gekko/lib\libc.a(lib_a-stdio.o) (_write_r)
c:/devkitpro/devkitppc/bin/../lib/gcc/powerpc-gekko/4.2.3/../../../../powerpc-gekko/lib\libsysbase.a(flock.o)
                              c:/devkitpro/devkitppc/bin/../lib/gcc/powerpc-gekko/4.2.3/../../../../powerpc-gekko/lib\libc.a(lib_a-fclose.o) (__funlockfile)
c:/devkitpro/devkitppc/bin/../lib/gcc/powerpc-gekko/4.2.3/../../../../powerpc-gekko/lib\libsysbase.a(handle_manager.o)
                              c:/devkitpro/devkitppc/bin/../lib/gcc/powerpc-gekko/4.2.3/../../../../powerpc-gekko/lib\libsysbase.a(close.o) (__get_handle)
c:/devkitpro/devkitppc/bin/../lib/gcc/powerpc-gekko/4.2.3\libgcc.a(_umoddi3.o)
                              c:/devkitpro/devkitppc/bin/../lib/gcc/powerpc-gekko/4.2.3/../../../../powerpc-gekko/lib\libc.a(lib_a-vfprintf.o) (__umoddi3)

Allocating common symbols
Common symbol       size              file

buttonsdown         0x4               template.o
face                0x4               freetype.o
_wd_sync_count      0x4               c:/devkitPro/libogc/lib/cube\libogc.a(lwp_watchdog.o)
c_y                 0x1               template.o
_context_switch_want
                    0x1               c:/devkitPro/libogc/lib/cube\libogc.a(lwp_threads.o)
glyph_index         0x4               freetype.o
_wd_sync_level      0x4               c:/devkitPro/libogc/lib/cube\libogc.a(lwp_watchdog.o)
trigr               0x1               template.o
_exceptionhandlertable
                    0x3c              c:/devkitPro/libogc/lib/cube\libogc.a(exception.o)
errorB              0x4               template.o
__hexdig            0x100             c:/devkitpro/devkitppc/bin/../lib/gcc/powerpc-gekko/4.2.3/../../../../powerpc-gekko/lib\libc.a(lib_a-gdtoa-gethex.o)
plugged             0x10              template.o
_thread_dispatch_disable_level
                    0x4               c:/devkitPro/libogc/lib/cube\libogc.a(lwp_threads.o)
screenheight        0x4               template.o
_lwp_sema_objects   0x28              c:/devkitPro/libogc/lib/cube\libogc.a(semaphore.o)
_lwp_cond_objects   0x28              c:/devkitPro/libogc/lib/cube\libogc.a(cond.o)
_prio_bitmap        0x40              c:/devkitPro/libogc/lib/cube\libogc.a(lwp_priority.o)
_wd_ticks_queue     0xc               c:/devkitPro/libogc/lib/cube\libogc.a(lwp_watchdog.o)
__outstr            0x100             c:/devkitPro/libogc/lib/cube\libogc.a(kprintf.o)
plugtot             0x4               template.o
_wd_ticks_since_boot
                    0x4               c:/devkitPro/libogc/lib/cube\libogc.a(lwp_watchdog.o)
_sys_state_curr     0x4               c:/devkitPro/libogc/lib/cube\libogc.a(sys_state.o)
trigl               0x1               template.o
_lwp_thr_ready      0xc00             c:/devkitPro/libogc/lib/cube\libogc.a(lwp_threads.o)
libc_globl_reent    0x400             c:/devkitPro/libogc/lib/cube\libogc.a(newlibc.o)
sticky              0x1               template.o
ftlibrary           0x4               freetype.o
errorA              0x4               template.o
_prio_major_bitmap  0x4               c:/devkitPro/libogc/lib/cube\libogc.a(lwp_priority.o)
__wkspace_heap      0x1c              c:/devkitPro/libogc/lib/cube\libogc.a(lwp_wkspace.o)
sramcntrl           0x50              c:/devkitPro/libogc/lib/cube\libogc.a(system.o)
vmode               0x4               template.o
rambuffer           0xc               c:/devkitPro/libogc/lib/cube\libmad.a(mp3player.o)
c_x                 0x1               template.o
_lwp_mqbox_objects  0x28              c:/devkitPro/libogc/lib/cube\libogc.a(message.o)
libc_reentrant      0x4               c:/devkitPro/libogc/lib/cube\libogc.a(newlibc.o)
_lwp_thr_objects    0x28              c:/devkitPro/libogc/lib/cube\libogc.a(lwp.o)
_lwp_mutex_objects  0x28              c:/devkitPro/libogc/lib/cube\libogc.a(mutex.o)
stickx              0x1               template.o
slot                0x4               freetype.o
core_context        0x2d0             c:/devkitPro/libogc/lib/cube\libogc.a(lwp_threads.o)
_lwp_tqueue_objects
                    0x28              c:/devkitPro/libogc/lib/cube\libogc.a(lwp.o)

Discarded input sections

 .text          0x00000000        0x0 c:/devkitpro/devkitppc/bin/../lib/gcc/powerpc-gekko/4.2.3/ecrti.o
 .data          0x00000000        0x0 c:/devkitpro/devkitppc/bin/../lib/gcc/powerpc-gekko/4.2.3/ecrti.o
 .bss           0x00000000        0x0 c:/devkitpro/devkitppc/bin/../lib/gcc/powerpc-gekko/4.2.3/ecrti.o
 .got           0x00000000        0x0 c:/devkitpro/devkitppc/bin/../lib/gcc/powerpc-gekko/4.2.3/ecrti.o
 .got1          0x00000000        0x0 c:/devkitpro/devkitppc/bin/../lib/gcc/powerpc-gekko/4.2.3/ecrti.o
 .got2          0x00000000        0x0 c:/devkitpro/devkitppc/bin/../lib/gcc/powerpc-gekko/4.2.3/ecrti.o
 .fixup         0x00000000        0x0 c:/devkitpro/devkitppc/bin/../lib/gcc/powerpc-gekko/4.2.3/ecrti.o
 .sbss          0x00000000        0x0 c:/devkitpro/devkitppc/bin/../lib/gcc/powerpc-gekko/4.2.3/ecrti.o
 .sbss2         0x00000000        0x0 c:/devkitpro/devkitppc/bin/../lib/gcc/powerpc-gekko/4.2.3/ecrti.o
 .gcc_except_table
                0x00000000        0x0 c:/devkitpro/devkitppc/bin/../lib/gcc/powerpc-gekko/4.2.3/ecrti.o
 .data          0x00000000        0x0 c:/devkitpro/devkitppc/bin/../lib/gcc/powerpc-gekko/4.2.3/../../../../powerpc-gekko/lib/crtmain.o
 .bss           0x00000000        0x0 c:/devkitpro/devkitppc/bin/../lib/gcc/powerpc-gekko/4.2.3/../../../../powerpc-gekko/lib/crtmain.o
 .text          0x00000000        0x0 freetype.o
 .data          0x00000000        0x0 freetype.o
 .bss           0x00000000        0x0 freetype.o
 .text.DrawLineFast
                0x00000000        0x0 freetype.o
 .text.WaitButtonA
                0x00000000        0x0 freetype.o
 .text.WaitPrompt
                0x00000000        0x0 freetype.o
 .text.SelectMode
                0x00000000        0x0 freetype.o
 .text.ShowAction
                0x00000000        0x0 freetype.o
 .text.ShowSelector
                0x00000000        0x0 freetype.o
 .text          0x00000000        0x0 template.o
 .data          0x00000000        0x0 template.o
 .bss           0x00000000        0x0 template.o
 .text          0x00000000        0x0 fontface.o
 .data          0x00000000        0x0 fontface.o
 .bss           0x00000000        0x0 fontface.o
 .text          0x00000000        0x0 mp3.o
 .data          0x00000000        0x0 mp3.o
 .bss           0x00000000        0x0 mp3.o
 .text          0x00000000        0x0 picture.o
 .data          0x00000000        0x0 picture.o
 .bss           0x00000000        0x0 picture.o
 .text          0x00000000        0x0 c:/devkitPro/libogc/lib/cube\libmad.a(mp3player.o)
 .data          0x00000000        0x0 c:/devkitPro/libogc/lib/cube\libmad.a(mp3player.o)
 .bss           0x00000000        0x0 c:/devkitPro/libogc/lib/cube\libmad.a(mp3player.o)
 .text.MP3Player_Stop
                0x00000000        0x0 c:/devkitPro/libogc/lib/cube\libmad.a(mp3player.o)
 .text.MP3Player_PlayFile
                0x00000000        0x0 c:/devkitPro/libogc/lib/cube\libmad.a(mp3player.o)
 .text          0x00000000        0x0 c:/devkitPro/libogc/lib/cube\libmad.a(frame.o)
 .data          0x00000000        0x0 c:/devkitPro/libogc/lib/cube\libmad.a(frame.o)
 .bss           0x00000000        0x0 c:/devkitPro/libogc/lib/cube\libmad.a(frame.o)
 .text          0x00000000        0x0 c:/devkitPro/libogc/lib/cube\libmad.a(layer12.o)
 .data          0x00000000        0x0 c:/devkitPro/libogc/lib/cube\libmad.a(layer12.o)
 .bss           0x00000000        0x0 c:/devkitPro/libogc/lib/cube\libmad.a(layer12.o)
 .text          0x00000000        0x0 c:/devkitPro/libogc/lib/cube\libmad.a(layer3.o)
 .data          0x00000000        0x0 c:/devkitPro/libogc/lib/cube\libmad.a(layer3.o)
 .bss           0x00000000        0x0 c:/devkitPro/libogc/lib/cube\libmad.a(layer3.o)
 .text          0x00000000        0x0 c:/devkitPro/libogc/lib/cube\libmad.a(stream.o)
 .data          0x00000000        0x0 c:/devkitPro/libogc/lib/cube\libmad.a(stream.o)
 .bss           0x00000000        0x0 c:/devkitPro/libogc/lib/cube\libmad.a(stream.o)
 .text.mad_stream_skip
                0x00000000        0x0 c:/devkitPro/libogc/lib/cube\libmad.a(stream.o)
 .text.mad_stream_errorstr
                0x00000000        0x0 c:/devkitPro/libogc/lib/cube\libmad.a(stream.o)
 .rodata.str1.4
                0x00000000        0x0 c:/devkitPro/libogc/lib/cube\libmad.a(stream.o)
 .text          0x00000000        0x0 c:/devkitPro/libogc/lib/cube\libmad.a(synth.o)
 .data          0x00000000        0x0 c:/devkitPro/libogc/lib/cube\libmad.a(synth.o)
 .bss           0x00000000        0x0 c:/devkitPro/libogc/lib/cube\libmad.a(synth.o)
 .text          0x00000000        0x0 c:/devkitPro/libogc/lib/cube\libmad.a(timer.o)
 .data          0x00000000        0x0 c:/devkitPro/libogc/lib/cube\libmad.a(timer.o)
 .bss           0x00000000        0x0 c:/devkitPro/libogc/lib/cube\libmad.a(timer.o)
 .text.mad_timer_compare
                0x00000000        0x0 c:/devkitPro/libogc/lib/cube\libmad.a(timer.o)
 .text.mad_timer_negate
                0x00000000        0x0 c:/devkitPro/libogc/lib/cube\libmad.a(timer.o)
 .text.mad_timer_abs
                0x00000000        0x0 c:/devkitPro/libogc/lib/cube\libmad.a(timer.o)
 .text.mad_timer_multiply
                0x00000000        0x0 c:/devkitPro/libogc/lib/cube\libmad.a(timer.o)
 .text.mad_timer_fraction
                0x00000000        0x0 c:/devkitPro/libogc/lib/cube\libmad.a(timer.o)
 .text.mad_timer_count
                0x00000000        0x0 c:/devkitPro/libogc/lib/cube\libmad.a(timer.o)
 .text.mad_timer_string
                0x00000000        0x0 c:/devkitPro/libogc/lib/cube\libmad.a(timer.o)
 .text          0x00000000        0x0 c:/devkitPro/libogc/lib/cube\libmad.a(bit.o)
 .data          0x00000000        0x0 c:/devkitPro/libogc/lib/cube\libmad.a(bit.o)
 .bss           0x00000000        0x0 c:/devkitPro/libogc/lib/cube\libmad.a(bit.o)
 .text          0x00000000        0x0 c:/devkitPro/libogc/lib/cube\libmad.a(huffman.o)
 .data          0x00000000        0x0 c:/devkitPro/libogc/lib/cube\libmad.a(huffman.o)
 .bss           0x00000000        0x0 c:/devkitPro/libogc/lib/cube\libmad.a(huffman.o)
 .data          0x00000000        0x0 c:/devkitpro/devkitppc/bin/../lib/gcc/powerpc-gekko/4.2.3/../../../../powerpc-gekko/lib\libm.a(lib_a-s_sin.o)
 .bss           0x00000000        0x0 c:/devkitpro/devkitppc/bin/../lib/gcc/powerpc-gekko/4.2.3/../../../../powerpc-gekko/lib\libm.a(lib_a-s_sin.o)
 .data          0x00000000        0x0 c:/devkitpro/devkitppc/bin/../lib/gcc/powerpc-gekko/4.2.3/../../../../powerpc-gekko/lib\libm.a(lib_a-s_sine.o)
 .bss           0x00000000        0x0 c:/devkitpro/devkitppc/bin/../lib/gcc/powerpc-gekko/4.2.3/../../../../powerpc-gekko/lib\libm.a(lib_a-s_sine.o)
 .data          0x00000000        0x0 c:/devkitpro/devkitppc/bin/../lib/gcc/powerpc-gekko/4.2.3/../../../../powerpc-gekko/lib\libm.a(lib_a-s_fabs.o)
 .bss           0x00000000        0x0 c:/devkitpro/devkitppc/bin/../lib/gcc/powerpc-gekko/4.2.3/../../../../powerpc-gekko/lib\libm.a(lib_a-s_fabs.o)
 .text          0x00000000        0x0 c:/devkitpro/devkitppc/bin/../lib/gcc/powerpc-gekko/4.2.3/../../../../powerpc-gekko/lib\libm.a(lib_a-s_mathcnst.o)
 .data          0x00000000        0x0 c:/devkitpro/devkitppc/bin/../lib/gcc/powerpc-gekko/4.2.3/../../../../powerpc-gekko/lib\libm.a(lib_a-s_mathcnst.o)
 .bss           0x00000000        0x0 c:/devkitpro/devkitppc/bin/../lib/gcc/powerpc-gekko/4.2.3/../../../../powerpc-gekko/lib\libm.a(lib_a-s_mathcnst.o)
 .data          0x00000000        0x0 c:/devkitpro/devkitppc/bin/../lib/gcc/powerpc-gekko/4.2.3/../../../../powerpc-gekko/lib\libm.a(lib_a-s_numtest.o)
 .bss           0x00000000        0x0 c:/devkitpro/devkitppc/bin/../lib/gcc/powerpc-gekko/4.2.3/../../../../powerpc-gekko/lib\libm.a(lib_a-s_numtest.o)
 .text          0x00000000        0x0 c:/devkitPro/libogc/lib/cube\libogc.a(console.o)
 .data          0x00000000        0x0 c:/devkitPro/libogc/lib/cube\libogc.a(console.o)
 .bss           0x00000000        0x0 c:/devkitPro/libogc/lib/cube\libogc.a(console.o)
 .text.CON_GetMetrics
                0x00000000        0x0 c:/devkitPro/libogc/lib/cube\libogc.a(console.o)
 .text.__console_init_ex
                0x00000000        0x0 c:/devkitPro/libogc/lib/cube\libogc.a(console.o)
 .text.CON_InitEx
                0x00000000        0x0 c:/devkitPro/libogc/lib/cube\libogc.a(console.o)
 .text.__console_vipostcb
                0x00000000        0x0 c:/devkitPro/libogc/lib/cube\libogc.a(console.o)
 .sbss._console_buffer
                0x00000000        0x0 c:/devkitPro/libogc/lib/cube\libogc.a(console.o)
 .text          0x00000000        0x0 c:/devkitPro/libogc/lib/cube\libogc.a(lwp.o)
 .data          0x00000000        0x0 c:/devkitPro/libogc/lib/cube\libogc.a(lwp.o)
 .bss           0x00000000        0x0 c:/devkitPro/libogc/lib/cube\libogc.a(lwp.o)
 .text.__lwp_thread_currentid
                0x00000000        0x0 c:/devkitPro/libogc/lib/cube\libogc.a(lwp.o)
 .text.LWP_GetSelf
                0x00000000        0x0 c:/devkitPro/libogc/lib/cube\libogc.a(lwp.o)
 .text.__lwp_thread_context
                0x00000000        0x0 c:/devkitPro/libogc/lib/cube\libogc.a(lwp.o)
 .text.__lwp_thread_exists
                0x00000000        0x0 c:/devkitPro/libogc/lib/cube\libogc.a(lwp.o)
 .text.__lwp_thread_isalive
                0x00000000        0x0 c:/devkitPro/libogc/lib/cube\libogc.a(lwp.o)
 .text.LWP_JoinThread
                0x00000000        0x0 c:/devkitPro/libogc/lib/cube\libogc.a(lwp.o)
 .text.LWP_ThreadIsSuspended
                0x00000000        0x0 c:/devkitPro/libogc/lib/cube\libogc.a(lwp.o)
 .text.LWP_Reschedule
                0x00000000        0x0 c:/devkitPro/libogc/lib/cube\libogc.a(lwp.o)
 .text.LWP_YieldThread
                0x00000000        0x0 c:/devkitPro/libogc/lib/cube\libogc.a(lwp.o)
 .text.LWP_SetThreadPriority
                0x00000000        0x0 c:/devkitPro/libogc/lib/cube\libogc.a(lwp.o)
 .text.LWP_ResumeThread
                0x00000000        0x0 c:/devkitPro/libogc/lib/cube\libogc.a(lwp.o)
 .text.LWP_SuspendThread
                0x00000000        0x0 c:/devkitPro/libogc/lib/cube\libogc.a(lwp.o)
 .text          0x00000000        0x0 c:/devkitPro/libogc/lib/cube\libogc.a(lwp_objmgr.o)
 .data          0x00000000        0x0 c:/devkitPro/libogc/lib/cube\libogc.a(lwp_objmgr.o)
 .bss           0x00000000        0x0 c:/devkitPro/libogc/lib/cube\libogc.a(lwp_objmgr.o)
 .text.__lwp_objmgr_memsize
                0x00000000        0x0 c:/devkitPro/libogc/lib/cube\libogc.a(lwp_objmgr.o)
 .text          0x00000000        0x0 c:/devkitPro/libogc/lib/cube\libogc.a(lwp_heap.o)
 .data          0x00000000        0x0 c:/devkitPro/libogc/lib/cube\libogc.a(lwp_heap.o)
 .bss           0x00000000        0x0 c:/devkitPro/libogc/lib/cube\libogc.a(lwp_heap.o)
 .text.__lwp_heap_getinfo
                0x00000000        0x0 c:/devkitPro/libogc/lib/cube\libogc.a(lwp_heap.o)
 .text          0x00000000        0x0 c:/devkitPro/libogc/lib/cube\libogc.a(sys_state.o)
 .data          0x00000000        0x0 c:/devkitPro/libogc/lib/cube\libogc.a(sys_state.o)
 .bss           0x00000000        0x0 c:/devkitPro/libogc/lib/cube\libogc.a(sys_state.o)
 .text          0x00000000        0x0 c:/devkitPro/libogc/lib/cube\libogc.a(video.o)
 .data          0x00000000        0x0 c:/devkitPro/libogc/lib/cube\libogc.a(video.o)
 .bss           0x00000000        0x0 c:/devkitPro/libogc/lib/cube\libogc.a(video.o)
 .text.VIDEO_GetNextFramebuffer
                0x00000000        0x0 c:/devkitPro/libogc/lib/cube\libogc.a(video.o)
 .text.VIDEO_GetCurrentFramebuffer
                0x00000000        0x0 c:/devkitPro/libogc/lib/cube\libogc.a(video.o)
 .text.VIDEO_SetPreRetraceCallback
                0x00000000        0x0 c:/devkitPro/libogc/lib/cube\libogc.a(video.o)
 .text.VIDEO_HaveComponentCable
                0x00000000        0x0 c:/devkitPro/libogc/lib/cube\libogc.a(video.o)
 .text.VIDEO_GetPreferredMode
                0x00000000        0x0 c:/devkitPro/libogc/lib/cube\libogc.a(video.o)
 .text.VIDEO_GetNextField
                0x00000000        0x0 c:/devkitPro/libogc/lib/cube\libogc.a(video.o)
 .text.VIDEO_SetNextRightFramebuffer
                0x00000000        0x0 c:/devkitPro/libogc/lib/cube\libogc.a(video.o)
 .data.TVPal264IntAa
                0x00000000        0x0 c:/devkitPro/libogc/lib/cube\libogc.a(video.o)
 .data.TVPal264DsAa
                0x00000000        0x0 c:/devkitPro/libogc/lib/cube\libogc.a(video.o)
 .data.TVNtsc480Int
                0x00000000        0x0 c:/devkitPro/libogc/lib/cube\libogc.a(video.o)
 .data.TVNtsc240IntAa
                0x00000000        0x0 c:/devkitPro/libogc/lib/cube\libogc.a(video.o)
 .data.TVNtsc480IntAa
                0x00000000        0x0 c:/devkitPro/libogc/lib/cube\libogc.a(video.o)
 .data.TVEurgb60Hz480ProgSoft
                0x00000000        0x0 c:/devkitPro/libogc/lib/cube\libogc.a(video.o)
 .data.TVEurgb60Hz480IntDf
                0x00000000        0x0 c:/devkitPro/libogc/lib/cube\libogc.a(video.o)
 .data.TVNtsc480ProgSoft
                0x00000000        0x0 c:/devkitPro/libogc/lib/cube\libogc.a(video.o)
 .data.TVEurgb60Hz240Int
                0x00000000        0x0 c:/devkitPro/libogc/lib/cube\libogc.a(video.o)
 .data.TVPal528Int
                0x00000000        0x0 c:/devkitPro/libogc/lib/cube\libogc.a(video.o)
 .data.TVNtsc480ProgAa
                0x00000000        0x0 c:/devkitPro/libogc/lib/cube\libogc.a(video.o)
 .data.TVPal264Ds
                0x00000000        0x0 c:/devkitPro/libogc/lib/cube\libogc.a(video.o)
 .data.TVNtsc240Int
                0x00000000        0x0 c:/devkitPro/libogc/lib/cube\libogc.a(video.o)
 .data.TVNtsc240Ds
                0x00000000        0x0 c:/devkitPro/libogc/lib/cube\libogc.a(video.o)
 .data.TVPal264Int
                0x00000000        0x0 c:/devkitPro/libogc/lib/cube\libogc.a(video.o)
 .data.TVEurgb60Hz240IntAa
                0x00000000        0x0 c:/devkitPro/libogc/lib/cube\libogc.a(video.o)
 .data.TVNtsc480Prog
                0x00000000        0x0 c:/devkitPro/libogc/lib/cube\libogc.a(video.o)
 .data.TVEurgb60Hz240Ds
                0x00000000        0x0 c:/devkitPro/libogc/lib/cube\libogc.a(video.o)
 .data.TVEurgb60Hz480Prog
                0x00000000        0x0 c:/devkitPro/libogc/lib/cube\libogc.a(video.o)
 .data.TVEurgb60Hz480Int
                0x00000000        0x0 c:/devkitPro/libogc/lib/cube\libogc.a(video.o)
 .data.TVPal524IntAa
                0x00000000        0x0 c:/devkitPro/libogc/lib/cube\libogc.a(video.o)
 .data.TVNtsc240DsAa
                0x00000000        0x0 c:/devkitPro/libogc/lib/cube\libogc.a(video.o)
 .data.TVEurgb60Hz480ProgAa
                0x00000000        0x0 c:/devkitPro/libogc/lib/cube\libogc.a(video.o)
 .data.TVEurgb60Hz480IntAa
                0x00000000        0x0 c:/devkitPro/libogc/lib/cube\libogc.a(video.o)
 .data.TVEurgb60Hz240DsAa
                0x00000000        0x0 c:/devkitPro/libogc/lib/cube\libogc.a(video.o)
 .data.TVPal574IntDfScale
                0x00000000        0x0 c:/devkitPro/libogc/lib/cube\libogc.a(video.o)
 .text          0x00000000        0x0 c:/devkitPro/libogc/lib/cube\libogc.a(pad.o)
 .data          0x00000000        0x0 c:/devkitPro/libogc/lib/cube\libogc.a(pad.o)
 .bss           0x00000000        0x0 c:/devkitPro/libogc/lib/cube\libogc.a(pad.o)
 .text.__pad_clampstick
                0x00000000        0x0 c:/devkitPro/libogc/lib/cube\libogc.a(pad.o)
 .text.__pad_clamptrigger
                0x00000000        0x0 c:/devkitPro/libogc/lib/cube\libogc.a(pad.o)
 .text.PAD_Clamp
                0x00000000        0x0 c:/devkitPro/libogc/lib/cube\libogc.a(pad.o)
 .text.PAD_ButtonsUp
                0x00000000        0x0 c:/devkitPro/libogc/lib/cube\libogc.a(pad.o)
 .data          0x00000000        0x0 c:/devkitPro/libogc/lib/cube\libogc.a(cache_asm.o)
 .bss           0x00000000        0x0 c:/devkitPro/libogc/lib/cube\libogc.a(cache_asm.o)
 .text          0x00000000        0x0 c:/devkitPro/libogc/lib/cube\libogc.a(system.o)
 .data          0x00000000        0x0 c:/devkitPro/libogc/lib/cube\libogc.a(system.o)
 .bss           0x00000000        0x0 c:/devkitPro/libogc/lib/cube\libogc.a(system.o)
 .text.__sdloader_boot
                0x00000000        0x0 c:/devkitPro/libogc/lib/cube\libogc.a(system.o)
 .text.SYS_GetArena1Size
                0x00000000        0x0 c:/devkitPro/libogc/lib/cube\libogc.a(system.o)
 .text.SYS_AllocArena1MemLo
                0x00000000        0x0 c:/devkitPro/libogc/lib/cube\libogc.a(system.o)
 .text.SYS_GetFontTexture
                0x00000000        0x0 c:/devkitPro/libogc/lib/cube\libogc.a(system.o)
 .text.SYS_GetFontTexel
                0x00000000        0x0 c:/devkitPro/libogc/lib/cube\libogc.a(system.o)
 .text.SYS_StartPMC
                0x00000000        0x0 c:/devkitPro/libogc/lib/cube\libogc.a(system.o)
 .text.SYS_StopPMC
                0x00000000        0x0 c:/devkitPro/libogc/lib/cube\libogc.a(system.o)
 .text.SYS_ResetPMC
                0x00000000        0x0 c:/devkitPro/libogc/lib/cube\libogc.a(system.o)
 .text.SYS_DumpPMC
                0x00000000        0x0 c:/devkitPro/libogc/lib/cube\libogc.a(system.o)
 .text.SYS_SetResetCallback
                0x00000000        0x0 c:/devkitPro/libogc/lib/cube\libogc.a(system.o)
 .text.__SYS_GetSystemTime
                0x00000000        0x0 c:/devkitPro/libogc/lib/cube\libogc.a(system.o)
 .text.SYS_GetFontEncoding
                0x00000000        0x0 c:/devkitPro/libogc/lib/cube\libogc.a(system.o)
 .text.SYS_ProtectRange
                0x00000000        0x0 c:/devkitPro/libogc/lib/cube\libogc.a(system.o)
 .text.__SYS_SetTime
                0x00000000        0x0 c:/devkitPro/libogc/lib/cube\libogc.a(system.o)
 .text.__getrtc
                0x00000000        0x0 c:/devkitPro/libogc/lib/cube\libogc.a(system.o)
 .text.__SYS_GetRTC
                0x00000000        0x0 c:/devkitPro/libogc/lib/cube\libogc.a(system.o)
 .text.__SYS_ReadROM
                0x00000000        0x0 c:/devkitPro/libogc/lib/cube\libogc.a(system.o)
 .text.__SYS_LoadFont
                0x00000000        0x0 c:/devkitPro/libogc/lib/cube\libogc.a(system.o)
 .text.SYS_InitFont
                0x00000000        0x0 c:/devkitPro/libogc/lib/cube\libogc.a(system.o)
 .text.__SYS_SetBootTime
                0x00000000        0x0 c:/devkitPro/libogc/lib/cube\libogc.a(system.o)
 .text.SYS_RemoveAlarm
                0x00000000        0x0 c:/devkitPro/libogc/lib/cube\libogc.a(system.o)
 .text.SYS_SetPeriodicAlarm
                0x00000000        0x0 c:/devkitPro/libogc/lib/cube\libogc.a(system.o)
 .sbss.sys_fontarea
                0x00000000        0x0 c:/devkitPro/libogc/lib/cube\libogc.a(system.o)
 .sbss.sys_fontwidthtab
                0x00000000        0x0 c:/devkitPro/libogc/lib/cube\libogc.a(system.o)
 .sbss.sys_fontdata
                0x00000000        0x0 c:/devkitPro/libogc/lib/cube\libogc.a(system.o)
 .sdata.sys_fontenc
                0x00000000        0x0 c:/devkitPro/libogc/lib/cube\libogc.a(system.o)
 .sbss.sys_fontcharsinsheet
                0x00000000        0x0 c:/devkitPro/libogc/lib/cube\libogc.a(system.o)
 .sbss.sys_fontimage
                0x00000000        0x0 c:/devkitPro/libogc/lib/cube\libogc.a(system.o)
 .data          0x00000000        0x0 c:/devkitPro/libogc/lib/cube\libogc.a(system_asm.o)
 .bss           0x00000000        0x0 c:/devkitPro/libogc/lib/cube\libogc.a(system_asm.o)
 .text          0x00000000        0x0 c:/devkitPro/libogc/lib/cube\libogc.a(cond.o)
 .data          0x00000000        0x0 c:/devkitPro/libogc/lib/cube\libogc.a(cond.o)
 .bss           0x00000000        0x0 c:/devkitPro/libogc/lib/cube\libogc.a(cond.o)
 .text.LWP_CondDestroy
                0x00000000        0x0 c:/devkitPro/libogc/lib/cube\libogc.a(cond.o)
 .text.LWP_CondInit
                0x00000000        0x0 c:/devkitPro/libogc/lib/cube\libogc.a(cond.o)
 .text.__lwp_cond_signalsupp
                0x00000000        0x0 c:/devkitPro/libogc/lib/cube\libogc.a(cond.o)
 .text.LWP_CondBroadcast
                0x00000000        0x0 c:/devkitPro/libogc/lib/cube\libogc.a(cond.o)
 .text.LWP_CondSignal
                0x00000000        0x0 c:/devkitPro/libogc/lib/cube\libogc.a(cond.o)
 .text.__lwp_cond_waitsupp
                0x00000000        0x0 c:/devkitPro/libogc/lib/cube\libogc.a(cond.o)
 .text.LWP_CondTimedWait
                0x00000000        0x0 c:/devkitPro/libogc/lib/cube\libogc.a(cond.o)
 .text.LWP_CondWait
                0x00000000        0x0 c:/devkitPro/libogc/lib/cube\libogc.a(cond.o)
 .text          0x00000000        0x0 c:/devkitPro/libogc/lib/cube\libogc.a(audio.o)
 .data          0x00000000        0x0 c:/devkitPro/libogc/lib/cube\libogc.a(audio.o)
 .bss           0x00000000        0x0 c:/devkitPro/libogc/lib/cube\libogc.a(audio.o)
 .text.__AISRCINIT
                0x00000000        0x0 c:/devkitPro/libogc/lib/cube\libogc.a(audio.o)
 .text.AUDIO_RegisterStreamCallback
                0x00000000        0x0 c:/devkitPro/libogc/lib/cube\libogc.a(audio.o)
 .text.AUDIO_SetStreamSampleRate
                0x00000000        0x0 c:/devkitPro/libogc/lib/cube\libogc.a(audio.o)
 .text.AUDIO_GetDMAEnableFlag
                0x00000000        0x0 c:/devkitPro/libogc/lib/cube\libogc.a(audio.o)
 .text.AUDIO_GetDMABytesLeft
                0x00000000        0x0 c:/devkitPro/libogc/lib/cube\libogc.a(audio.o)
 .text.AUDIO_GetDMAStartAddr
                0x00000000        0x0 c:/devkitPro/libogc/lib/cube\libogc.a(audio.o)
 .text.AUDIO_GetDMALength
                0x00000000        0x0 c:/devkitPro/libogc/lib/cube\libogc.a(audio.o)
 .text.AUDIO_SetStreamTrigger
                0x00000000        0x0 c:/devkitPro/libogc/lib/cube\libogc.a(audio.o)
 .text.AUDIO_ResetStreamSampleCnt
                0x00000000        0x0 c:/devkitPro/libogc/lib/cube\libogc.a(audio.o)
 .text          0x00000000        0x0 c:/devkitPro/libogc/lib/cube\libogc.a(decrementer.o)
 .data          0x00000000        0x0 c:/devkitPro/libogc/lib/cube\libogc.a(decrementer.o)
 .bss           0x00000000        0x0 c:/devkitPro/libogc/lib/cube\libogc.a(decrementer.o)
 .text          0x00000000        0x0 c:/devkitPro/libogc/lib/cube\libogc.a(message.o)
 .data          0x00000000        0x0 c:/devkitPro/libogc/lib/cube\libogc.a(message.o)
 .bss           0x00000000        0x0 c:/devkitPro/libogc/lib/cube\libogc.a(message.o)
 .text.MQ_Close
                0x00000000        0x0 c:/devkitPro/libogc/lib/cube\libogc.a(message.o)
 .text.MQ_Init  0x00000000        0x0 c:/devkitPro/libogc/lib/cube\libogc.a(message.o)
 .text.MQ_Jam   0x00000000        0x0 c:/devkitPro/libogc/lib/cube\libogc.a(message.o)
 .text.MQ_Receive
                0x00000000        0x0 c:/devkitPro/libogc/lib/cube\libogc.a(message.o)
 .text.MQ_Send  0x00000000        0x0 c:/devkitPro/libogc/lib/cube\libogc.a(message.o)
 .text          0x00000000        0x0 c:/devkitPro/libogc/lib/cube\libogc.a(card.o)
 .data          0x00000000        0x0 c:/devkitPro/libogc/lib/cube\libogc.a(card.o)
 .bss           0x00000000        0x0 c:/devkitPro/libogc/lib/cube\libogc.a(card.o)
 .text.__card_updateiconoffsets
                0x00000000        0x0 c:/devkitPro/libogc/lib/cube\libogc.a(card.o)
 .text.__card_seek
                0x00000000        0x0 c:/devkitPro/libogc/lib/cube\libogc.a(card.o)
 .text.CARD_Close
                0x00000000        0x0 c:/devkitPro/libogc/lib/cube\libogc.a(card.o)
 .text.CARD_GetSectorSize
                0x00000000        0x0 c:/devkitPro/libogc/lib/cube\libogc.a(card.o)
 .text.CARD_GetBlockCount
                0x00000000        0x0 c:/devkitPro/libogc/lib/cube\libogc.a(card.o)
 .text.CARD_SetGamecode
                0x00000000        0x0 c:/devkitPro/libogc/lib/cube\libogc.a(card.o)
 .text.CARD_SetCompany
                0x00000000        0x0 c:/devkitPro/libogc/lib/cube\libogc.a(card.o)
 .text.__card_dirwritecallback
                0x00000000        0x0 c:/devkitPro/libogc/lib/cube\libogc.a(card.o)
 .text.__card_fatwritecallback
                0x00000000        0x0 c:/devkitPro/libogc/lib/cube\libogc.a(card.o)
 .text.__card_getstatusex
                0x00000000        0x0 c:/devkitPro/libogc/lib/cube\libogc.a(card.o)
 .text.CARD_GetAttributes
                0x00000000        0x0 c:/devkitPro/libogc/lib/cube\libogc.a(card.o)
 .text.__card_findnext
                0x00000000        0x0 c:/devkitPro/libogc/lib/cube\libogc.a(card.o)
 .text.CARD_FindNext
                0x00000000        0x0 c:/devkitPro/libogc/lib/cube\libogc.a(card.o)
 .text.CARD_FindFirst
                0x00000000        0x0 c:/devkitPro/libogc/lib/cube\libogc.a(card.o)
 .text.__card_sectorerase
                0x00000000        0x0 c:/devkitPro/libogc/lib/cube\libogc.a(card.o)
 .text.CARD_WriteAsync
                0x00000000        0x0 c:/devkitPro/libogc/lib/cube\libogc.a(card.o)
 .text.CARD_Write
                0x00000000        0x0 c:/devkitPro/libogc/lib/cube\libogc.a(card.o)
 .text.__card_updatedir
                0x00000000        0x0 c:/devkitPro/libogc/lib/cube\libogc.a(card.o)
 .text.CARD_SetAttributesAsync
                0x00000000        0x0 c:/devkitPro/libogc/lib/cube\libogc.a(card.o)
 .text.CARD_SetAttributes
                0x00000000        0x0 c:/devkitPro/libogc/lib/cube\libogc.a(card.o)
 .text.__card_updatefat
                0x00000000        0x0 c:/devkitPro/libogc/lib/cube\libogc.a(card.o)
 .text.__delete_callback
                0x00000000        0x0 c:/devkitPro/libogc/lib/cube\libogc.a(card.o)
 .text.__card_allocblock
                0x00000000        0x0 c:/devkitPro/libogc/lib/cube\libogc.a(card.o)
 .text.CARD_Probe
                0x00000000        0x0 c:/devkitPro/libogc/lib/cube\libogc.a(card.o)
 .text.__card_writepage
                0x00000000        0x0 c:/devkitPro/libogc/lib/cube\libogc.a(card.o)
 .text.__card_write
                0x00000000        0x0 c:/devkitPro/libogc/lib/cube\libogc.a(card.o)
 .text.__card_direrasecallback
                0x00000000        0x0 c:/devkitPro/libogc/lib/cube\libogc.a(card.o)
 .text.__format_callback
                0x00000000        0x0 c:/devkitPro/libogc/lib/cube\libogc.a(card.o)
 .text.__erase_callback
                0x00000000        0x0 c:/devkitPro/libogc/lib/cube\libogc.a(card.o)
 .text.__blockwritecallback
                0x00000000        0x0 c:/devkitPro/libogc/lib/cube\libogc.a(card.o)
 .text.CARD_SetStatusAsync
                0x00000000        0x0 c:/devkitPro/libogc/lib/cube\libogc.a(card.o)
 .text.CARD_SetStatus
                0x00000000        0x0 c:/devkitPro/libogc/lib/cube\libogc.a(card.o)
 .text.CARD_DeleteEntryAsync
                0x00000000        0x0 c:/devkitPro/libogc/lib/cube\libogc.a(card.o)
 .text.CARD_DeleteEntry
                0x00000000        0x0 c:/devkitPro/libogc/lib/cube\libogc.a(card.o)
 .text.CARD_CreateEntryAsync
                0x00000000        0x0 c:/devkitPro/libogc/lib/cube\libogc.a(card.o)
 .text.CARD_CreateEntry
                0x00000000        0x0 c:/devkitPro/libogc/lib/cube\libogc.a(card.o)
 .text.CARD_CreateAsync
                0x00000000        0x0 c:/devkitPro/libogc/lib/cube\libogc.a(card.o)
 .text.CARD_Create
                0x00000000        0x0 c:/devkitPro/libogc/lib/cube\libogc.a(card.o)
 .text.__card_formatregion
                0x00000000        0x0 c:/devkitPro/libogc/lib/cube\libogc.a(card.o)
 .text.CARD_Format
                0x00000000        0x0 c:/devkitPro/libogc/lib/cube\libogc.a(card.o)
 .text.CARD_FormatAsync
                0x00000000        0x0 c:/devkitPro/libogc/lib/cube\libogc.a(card.o)
 .text.__card_getfilenum
                0x00000000        0x0 c:/devkitPro/libogc/lib/cube\libogc.a(card.o)
 .text.CARD_DeleteAsync
                0x00000000        0x0 c:/devkitPro/libogc/lib/cube\libogc.a(card.o)
 .text.CARD_Delete
                0x00000000        0x0 c:/devkitPro/libogc/lib/cube\libogc.a(card.o)
 .text.CARD_ReadAsync
                0x00000000        0x0 c:/devkitPro/libogc/lib/cube\libogc.a(card.o)
 .text.CARD_Read
                0x00000000        0x0 c:/devkitPro/libogc/lib/cube\libogc.a(card.o)
 .text.CARD_ProbeEx
                0x00000000        0x0 c:/devkitPro/libogc/lib/cube\libogc.a(card.o)
 .text.__write_callback
                0x00000000        0x0 c:/devkitPro/libogc/lib/cube\libogc.a(card.o)
 .text.CARD_GetStatus
                0x00000000        0x0 c:/devkitPro/libogc/lib/cube\libogc.a(card.o)
 .text.CARD_GetDirectory
                0x00000000        0x0 c:/devkitPro/libogc/lib/cube\libogc.a(card.o)
 .text.CARD_OpenEntry
                0x00000000        0x0 c:/devkitPro/libogc/lib/cube\libogc.a(card.o)
 .text.CARD_Open
                0x00000000        0x0 c:/devkitPro/libogc/lib/cube\libogc.a(card.o)
 .text.__card_createfatcallback
                0x00000000        0x0 c:/devkitPro/libogc/lib/cube\libogc.a(card.o)
 .text.__card_faterasecallback
                0x00000000        0x0 c:/devkitPro/libogc/lib/cube\libogc.a(card.o)
 .text.__read_callback
                0x00000000        0x0 c:/devkitPro/libogc/lib/cube\libogc.a(card.o)
 .text          0x00000000        0x0 c:/devkitPro/libogc/lib/cube\libogc.a(dsp.o)
 .data          0x00000000        0x0 c:/devkitPro/libogc/lib/cube\libogc.a(dsp.o)
 .bss           0x00000000        0x0 c:/devkitPro/libogc/lib/cube\libogc.a(dsp.o)
 .text.DSP_RegisterCallback
                0x00000000        0x0 c:/devkitPro/libogc/lib/cube\libogc.a(dsp.o)
 .text.DSP_ReadCPUtoDSP
                0x00000000        0x0 c:/devkitPro/libogc/lib/cube\libogc.a(dsp.o)
 .text.DSP_AssertInt
                0x00000000        0x0 c:/devkitPro/libogc/lib/cube\libogc.a(dsp.o)
 .text.DSP_Halt
                0x00000000        0x0 c:/devkitPro/libogc/lib/cube\libogc.a(dsp.o)
 .text.DSP_Unhalt
                0x00000000        0x0 c:/devkitPro/libogc/lib/cube\libogc.a(dsp.o)
 .text          0x00000000        0x0 c:/devkitPro/libogc/lib/cube\libogc.a(si.o)
 .data          0x00000000        0x0 c:/devkitPro/libogc/lib/cube\libogc.a(si.o)
 .bss           0x00000000        0x0 c:/devkitPro/libogc/lib/cube\libogc.a(si.o)
 .text.SI_GetCommand
                0x00000000        0x0 c:/devkitPro/libogc/lib/cube\libogc.a(si.o)
 .text.SI_Sync  0x00000000        0x0 c:/devkitPro/libogc/lib/cube\libogc.a(si.o)
 .text          0x00000000        0x0 c:/devkitPro/libogc/lib/cube\libogc.a(ogc_crt0.o)
 .text          0x00000000        0x0 c:/devkitPro/libogc/lib/cube\libogc.a(console_font_8x16.o)
 .data          0x00000000        0x0 c:/devkitPro/libogc/lib/cube\libogc.a(console_font_8x16.o)
 .bss           0x00000000        0x0 c:/devkitPro/libogc/lib/cube\libogc.a(console_font_8x16.o)
 .text          0x00000000        0x0 c:/devkitPro/libogc/lib/cube\libogc.a(timesupp.o)
 .data          0x00000000        0x0 c:/devkitPro/libogc/lib/cube\libogc.a(timesupp.o)
 .bss           0x00000000        0x0 c:/devkitPro/libogc/lib/cube\libogc.a(timesupp.o)
 .text.settime  0x00000000        0x0 c:/devkitPro/libogc/lib/cube\libogc.a(timesupp.o)
 .text.diff_sec
                0x00000000        0x0 c:/devkitPro/libogc/lib/cube\libogc.a(timesupp.o)
 .text.diff_msec
                0x00000000        0x0 c:/devkitPro/libogc/lib/cube\libogc.a(timesupp.o)
 .text.diff_nsec
                0x00000000        0x0 c:/devkitPro/libogc/lib/cube\libogc.a(timesupp.o)
 .text.timespec_substract
                0x00000000        0x0 c:/devkitPro/libogc/lib/cube\libogc.a(timesupp.o)
 .text.timespec_to_ticks
                0x00000000        0x0 c:/devkitPro/libogc/lib/cube\libogc.a(timesupp.o)
 .text.nanosleep
                0x00000000        0x0 c:/devkitPro/libogc/lib/cube\libogc.a(timesupp.o)
 .text.usleep   0x00000000        0x0 c:/devkitPro/libogc/lib/cube\libogc.a(timesupp.o)
 .text.sleep    0x00000000        0x0 c:/devkitPro/libogc/lib/cube\libogc.a(timesupp.o)
 .text.clock_gettime
                0x00000000        0x0 c:/devkitPro/libogc/lib/cube\libogc.a(timesupp.o)
 .text          0x00000000        0x0 c:/devkitPro/libogc/lib/cube\libogc.a(lock_supp.o)
 .data          0x00000000        0x0 c:/devkitPro/libogc/lib/cube\libogc.a(lock_supp.o)
 .bss           0x00000000        0x0 c:/devkitPro/libogc/lib/cube\libogc.a(lock_supp.o)
 .text          0x00000000        0x0 c:/devkitPro/libogc/lib/cube\libogc.a(newlibc.o)
 .data          0x00000000        0x0 c:/devkitPro/libogc/lib/cube\libogc.a(newlibc.o)
 .bss           0x00000000        0x0 c:/devkitPro/libogc/lib/cube\libogc.a(newlibc.o)
 .text.__libc_wrapup
                0x00000000        0x0 c:/devkitPro/libogc/lib/cube\libogc.a(newlibc.o)
 .text          0x00000000        0x0 c:/devkitPro/libogc/lib/cube\libogc.a(sbrk.o)
 .data          0x00000000        0x0 c:/devkitPro/libogc/lib/cube\libogc.a(sbrk.o)
 .bss           0x00000000        0x0 c:/devkitPro/libogc/lib/cube\libogc.a(sbrk.o)
 .text          0x00000000        0x0 c:/devkitPro/libogc/lib/cube\libogc.a(malloc_lock.o)
 .data          0x00000000        0x0 c:/devkitPro/libogc/lib/cube\libogc.a(malloc_lock.o)
 .bss           0x00000000        0x0 c:/devkitPro/libogc/lib/cube\libogc.a(malloc_lock.o)
 .text          0x00000000        0x0 c:/devkitPro/libogc/lib/cube\libogc.a(argv.o)
 .data          0x00000000        0x0 c:/devkitPro/libogc/lib/cube\libogc.a(argv.o)
 .bss           0x00000000        0x0 c:/devkitPro/libogc/lib/cube\libogc.a(argv.o)
 .text          0x00000000        0x0 c:/devkitPro/libogc/lib/cube\libogc.a(lwp_priority.o)
 .data          0x00000000        0x0 c:/devkitPro/libogc/lib/cube\libogc.a(lwp_priority.o)
 .bss           0x00000000        0x0 c:/devkitPro/libogc/lib/cube\libogc.a(lwp_priority.o)
 .text          0x00000000        0x0 c:/devkitPro/libogc/lib/cube\libogc.a(lwp_queue.o)
 .data          0x00000000        0x0 c:/devkitPro/libogc/lib/cube\libogc.a(lwp_queue.o)
 .bss           0x00000000        0x0 c:/devkitPro/libogc/lib/cube\libogc.a(lwp_queue.o)
 .text.__lwp_queue_extract
                0x00000000        0x0 c:/devkitPro/libogc/lib/cube\libogc.a(lwp_queue.o)
 .text.__lwp_queue_insert
                0x00000000        0x0 c:/devkitPro/libogc/lib/cube\libogc.a(lwp_queue.o)
 .text          0x00000000        0x0 c:/devkitPro/libogc/lib/cube\libogc.a(lwp_threadq.o)
 .data          0x00000000        0x0 c:/devkitPro/libogc/lib/cube\libogc.a(lwp_threadq.o)
 .bss           0x00000000        0x0 c:/devkitPro/libogc/lib/cube\libogc.a(lwp_threadq.o)
 .text.__lwp_threadqueue_firstfifo
                0x00000000        0x0 c:/devkitPro/libogc/lib/cube\libogc.a(lwp_threadq.o)
 .text.__lwp_threadqueue_firstpriority
                0x00000000        0x0 c:/devkitPro/libogc/lib/cube\libogc.a(lwp_threadq.o)
 .text.__lwp_threadqueue_first
                0x00000000        0x0 c:/devkitPro/libogc/lib/cube\libogc.a(lwp_threadq.o)
 .text          0x00000000        0x0 c:/devkitPro/libogc/lib/cube\libogc.a(lwp_threads.o)
 .data          0x00000000        0x0 c:/devkitPro/libogc/lib/cube\libogc.a(lwp_threads.o)
 .bss           0x00000000        0x0 c:/devkitPro/libogc/lib/cube\libogc.a(lwp_threads.o)
 .text.__lwp_thread_yield
                0x00000000        0x0 c:/devkitPro/libogc/lib/cube\libogc.a(lwp_threads.o)
 .text.__lwp_rotate_readyqueue
                0x00000000        0x0 c:/devkitPro/libogc/lib/cube\libogc.a(lwp_threads.o)
 .text.__lwp_thread_delayended
                0x00000000        0x0 c:/devkitPro/libogc/lib/cube\libogc.a(lwp_threads.o)
 .text.__lwp_evaluatemode
                0x00000000        0x0 c:/devkitPro/libogc/lib/cube\libogc.a(lwp_threads.o)
 .text.__lwp_thread_resume
                0x00000000        0x0 c:/devkitPro/libogc/lib/cube\libogc.a(lwp_threads.o)
 .text.__lwp_thread_suspend
                0x00000000        0x0 c:/devkitPro/libogc/lib/cube\libogc.a(lwp_threads.o)
 .text          0x00000000        0x0 c:/devkitPro/libogc/lib/cube\libogc.a(lwp_messages.o)
 .data          0x00000000        0x0 c:/devkitPro/libogc/lib/cube\libogc.a(lwp_messages.o)
 .bss           0x00000000        0x0 c:/devkitPro/libogc/lib/cube\libogc.a(lwp_messages.o)
 .text.__lwpmq_flush_support
                0x00000000        0x0 c:/devkitPro/libogc/lib/cube\libogc.a(lwp_messages.o)
 .text.__lwpmq_flush
                0x00000000        0x0 c:/devkitPro/libogc/lib/cube\libogc.a(lwp_messages.o)
 .text.__lwpmq_flush_waitthreads
                0x00000000        0x0 c:/devkitPro/libogc/lib/cube\libogc.a(lwp_messages.o)
 .text.__lwpmq_close
                0x00000000        0x0 c:/devkitPro/libogc/lib/cube\libogc.a(lwp_messages.o)
 .text.__lwpmq_initialize
                0x00000000        0x0 c:/devkitPro/libogc/lib/cube\libogc.a(lwp_messages.o)
 .text.__lwpmq_msg_insert
                0x00000000        0x0 c:/devkitPro/libogc/lib/cube\libogc.a(lwp_messages.o)
 .text.__lwpmq_broadcast
                0x00000000        0x0 c:/devkitPro/libogc/lib/cube\libogc.a(lwp_messages.o)
 .text.__lwpmq_submit
                0x00000000        0x0 c:/devkitPro/libogc/lib/cube\libogc.a(lwp_messages.o)
 .text.__lwpmq_seize
                0x00000000        0x0 c:/devkitPro/libogc/lib/cube\libogc.a(lwp_messages.o)
 .data          0x00000000        0x0 c:/devkitPro/libogc/lib/cube\libogc.a(lwp_handler.o)
 .bss           0x00000000        0x0 c:/devkitPro/libogc/lib/cube\libogc.a(lwp_handler.o)
 .text          0x00000000        0x0 c:/devkitPro/libogc/lib/cube\libogc.a(lwp_stack.o)
 .data          0x00000000        0x0 c:/devkitPro/libogc/lib/cube\libogc.a(lwp_stack.o)
 .bss           0x00000000        0x0 c:/devkitPro/libogc/lib/cube\libogc.a(lwp_stack.o)
 .text          0x00000000        0x0 c:/devkitPro/libogc/lib/cube\libogc.a(lwp_mutex.o)
 .data          0x00000000        0x0 c:/devkitPro/libogc/lib/cube\libogc.a(lwp_mutex.o)
 .bss           0x00000000        0x0 c:/devkitPro/libogc/lib/cube\libogc.a(lwp_mutex.o)
 .text          0x00000000        0x0 c:/devkitPro/libogc/lib/cube\libogc.a(lwp_watchdog.o)
 .data          0x00000000        0x0 c:/devkitPro/libogc/lib/cube\libogc.a(lwp_watchdog.o)
 .bss           0x00000000        0x0 c:/devkitPro/libogc/lib/cube\libogc.a(lwp_watchdog.o)
 .text.__lwp_wd_adjust
                0x00000000        0x0 c:/devkitPro/libogc/lib/cube\libogc.a(lwp_watchdog.o)
 .text          0x00000000        0x0 c:/devkitPro/libogc/lib/cube\libogc.a(lwp_wkspace.o)
 .data          0x00000000        0x0 c:/devkitPro/libogc/lib/cube\libogc.a(lwp_wkspace.o)
 .bss           0x00000000        0x0 c:/devkitPro/libogc/lib/cube\libogc.a(lwp_wkspace.o)
 .text.__lwp_wkspace_heapsize
                0x00000000        0x0 c:/devkitPro/libogc/lib/cube\libogc.a(lwp_wkspace.o)
 .text.__lwp_wkspace_heapused
                0x00000000        0x0 c:/devkitPro/libogc/lib/cube\libogc.a(lwp_wkspace.o)
 .text.__lwp_wkspace_heapfree
                0x00000000        0x0 c:/devkitPro/libogc/lib/cube\libogc.a(lwp_wkspace.o)
 .bss.__wkspace_iblock
                0x00000000        0x0 c:/devkitPro/libogc/lib/cube\libogc.a(lwp_wkspace.o)
 .text          0x00000000        0x0 c:/devkitPro/libogc/lib/cube\libogc.a(exception.o)
 .data          0x00000000        0x0 c:/devkitPro/libogc/lib/cube\libogc.a(exception.o)
 .bss           0x00000000        0x0 c:/devkitPro/libogc/lib/cube\libogc.a(exception.o)
 .text.__exception_close
                0x00000000        0x0 c:/devkitPro/libogc/lib/cube\libogc.a(exception.o)
 .text.__exception_closeall
                0x00000000        0x0 c:/devkitPro/libogc/lib/cube\libogc.a(exception.o)
 .text          0x00000000        0x0 c:/devkitPro/libogc/lib/cube\libogc.a(irq.o)
 .data          0x00000000        0x0 c:/devkitPro/libogc/lib/cube\libogc.a(irq.o)
 .bss           0x00000000        0x0 c:/devkitPro/libogc/lib/cube\libogc.a(irq.o)
 .text.IRQ_Free
                0x00000000        0x0 c:/devkitPro/libogc/lib/cube\libogc.a(irq.o)
 .text.IRQ_Disable
                0x00000000        0x0 c:/devkitPro/libogc/lib/cube\libogc.a(irq.o)
 .text.IRQ_Restore
                0x00000000        0x0 c:/devkitPro/libogc/lib/cube\libogc.a(irq.o)
 .data          0x00000000        0x0 c:/devkitPro/libogc/lib/cube\libogc.a(irq_handler.o)
 .bss           0x00000000        0x0 c:/devkitPro/libogc/lib/cube\libogc.a(irq_handler.o)
 .text          0x00000000        0x0 c:/devkitPro/libogc/lib/cube\libogc.a(semaphore.o)
 .data          0x00000000        0x0 c:/devkitPro/libogc/lib/cube\libogc.a(semaphore.o)
 .bss           0x00000000        0x0 c:/devkitPro/libogc/lib/cube\libogc.a(semaphore.o)
 .text.LWP_SemInit
                0x00000000        0x0 c:/devkitPro/libogc/lib/cube\libogc.a(semaphore.o)
 .text.LWP_SemDestroy
                0x00000000        0x0 c:/devkitPro/libogc/lib/cube\libogc.a(semaphore.o)
 .text.LWP_SemPost
                0x00000000        0x0 c:/devkitPro/libogc/lib/cube\libogc.a(semaphore.o)
 .text.LWP_SemWait
                0x00000000        0x0 c:/devkitPro/libogc/lib/cube\libogc.a(semaphore.o)
 .data          0x00000000        0x0 c:/devkitPro/libogc/lib/cube\libogc.a(video_asm.o)
 .bss           0x00000000        0x0 c:/devkitPro/libogc/lib/cube\libogc.a(video_asm.o)
 .text          0x00000000        0x0 c:/devkitPro/libogc/lib/cube\libogc.a(exi.o)
 .data          0x00000000        0x0 c:/devkitPro/libogc/lib/cube\libogc.a(exi.o)
 .bss           0x00000000        0x0 c:/devkitPro/libogc/lib/cube\libogc.a(exi.o)
 .text.InitializeUART
                0x00000000        0x0 c:/devkitPro/libogc/lib/cube\libogc.a(exi.o)
 .text.WriteUARTN
                0x00000000        0x0 c:/devkitPro/libogc/lib/cube\libogc.a(exi.o)
 .text.EXI_ProbeEx
                0x00000000        0x0 c:/devkitPro/libogc/lib/cube\libogc.a(exi.o)
 .text.__SYS_EnableBarnacle
                0x00000000        0x0 c:/devkitPro/libogc/lib/cube\libogc.a(exi.o)
 .text.EXI_SelectSD
                0x00000000        0x0 c:/devkitPro/libogc/lib/cube\libogc.a(exi.o)
 .sbss.exi_uart_dev
                0x00000000        0x0 c:/devkitPro/libogc/lib/cube\libogc.a(exi.o)
 .sbss.exi_uart_barnacle_enabled
                0x00000000        0x0 c:/devkitPro/libogc/lib/cube\libogc.a(exi.o)
 .sbss.exi_uart_chan
                0x00000000        0x0 c:/devkitPro/libogc/lib/cube\libogc.a(exi.o)
 .sbss.exi_uart_enabled
                0x00000000        0x0 c:/devkitPro/libogc/lib/cube\libogc.a(exi.o)
 .text          0x00000000        0x0 c:/devkitPro/libogc/lib/cube\libogc.a(mutex.o)
 .data          0x00000000        0x0 c:/devkitPro/libogc/lib/cube\libogc.a(mutex.o)
 .bss           0x00000000        0x0 c:/devkitPro/libogc/lib/cube\libogc.a(mutex.o)
 .text.LWP_MutexTryLock
                0x00000000        0x0 c:/devkitPro/libogc/lib/cube\libogc.a(mutex.o)
 .data          0x00000000        0x0 c:/devkitPro/libogc/lib/cube\libogc.a(decrementer_handler.o)
 .bss           0x00000000        0x0 c:/devkitPro/libogc/lib/cube\libogc.a(decrementer_handler.o)
 .text          0x00000000        0x0 c:/devkitPro/libogc/lib/cube\libogc.a(kprintf.o)
 .data          0x00000000        0x0 c:/devkitPro/libogc/lib/cube\libogc.a(kprintf.o)
 .bss           0x00000000        0x0 c:/devkitPro/libogc/lib/cube\libogc.a(kprintf.o)
 .text          0x00000000        0x0 c:/devkitPro/libogc/lib/cube\libogc.a(lwp_sema.o)
 .data          0x00000000        0x0 c:/devkitPro/libogc/lib/cube\libogc.a(lwp_sema.o)
 .bss           0x00000000        0x0 c:/devkitPro/libogc/lib/cube\libogc.a(lwp_sema.o)
 .text.__lwp_sema_flush
                0x00000000        0x0 c:/devkitPro/libogc/lib/cube\libogc.a(lwp_sema.o)
 .text.__lwp_sema_seize
                0x00000000        0x0 c:/devkitPro/libogc/lib/cube\libogc.a(lwp_sema.o)
 .text.__lwp_sema_surrender
                0x00000000        0x0 c:/devkitPro/libogc/lib/cube\libogc.a(lwp_sema.o)
 .text.__lwp_sema_initialize
                0x00000000        0x0 c:/devkitPro/libogc/lib/cube\libogc.a(lwp_sema.o)
 .data          0x00000000        0x0 c:/devkitPro/libogc/lib/cube\libogc.a(exception_handler.o)
 .bss           0x00000000        0x0 c:/devkitPro/libogc/lib/cube\libogc.a(exception_handler.o)
 .data          0x00000000        0x0 c:/devkitpro/devkitppc/bin/../lib/gcc/powerpc-gekko/4.2.3/../../../../powerpc-gekko/lib\libfreetype.a(ftinit.o)
 .bss           0x00000000        0x0 c:/devkitpro/devkitppc/bin/../lib/gcc/powerpc-gekko/4.2.3/../../../../powerpc-gekko/lib\libfreetype.a(ftinit.o)
 .data          0x00000000        0x0 c:/devkitpro/devkitppc/bin/../lib/gcc/powerpc-gekko/4.2.3/../../../../powerpc-gekko/lib\libfreetype.a(ftbase.o)
 .bss           0x00000000        0x0 c:/devkitpro/devkitppc/bin/../lib/gcc/powerpc-gekko/4.2.3/../../../../powerpc-gekko/lib\libfreetype.a(ftbase.o)
 .sdata         0x00000000        0x0 c:/devkitpro/devkitppc/bin/../lib/gcc/powerpc-gekko/4.2.3/../../../../powerpc-gekko/lib\libfreetype.a(ftbase.o)
 .data          0x00000000        0x0 c:/devkitpro/devkitppc/bin/../lib/gcc/powerpc-gekko/4.2.3/../../../../powerpc-gekko/lib\libfreetype.a(truetype.o)
 .bss           0x00000000        0x0 c:/devkitpro/devkitppc/bin/../lib/gcc/powerpc-gekko/4.2.3/../../../../powerpc-gekko/lib\libfreetype.a(truetype.o)
 .data          0x00000000        0x0 c:/devkitpro/devkitppc/bin/../lib/gcc/powerpc-gekko/4.2.3/../../../../powerpc-gekko/lib\libfreetype.a(type1.o)
 .bss           0x00000000        0x0 c:/devkitpro/devkitppc/bin/../lib/gcc/powerpc-gekko/4.2.3/../../../../powerpc-gekko/lib\libfreetype.a(type1.o)
 .data          0x00000000        0x0 c:/devkitpro/devkitppc/bin/../lib/gcc/powerpc-gekko/4.2.3/../../../../powerpc-gekko/lib\libfreetype.a(cff.o)
 .bss           0x00000000        0x0 c:/devkitpro/devkitppc/bin/../lib/gcc/powerpc-gekko/4.2.3/../../../../powerpc-gekko/lib\libfreetype.a(cff.o)
 .data          0x00000000        0x0 c:/devkitpro/devkitppc/bin/../lib/gcc/powerpc-gekko/4.2.3/../../../../powerpc-gekko/lib\libfreetype.a(type1cid.o)
 .bss           0x00000000        0x0 c:/devkitpro/devkitppc/bin/../lib/gcc/powerpc-gekko/4.2.3/../../../../powerpc-gekko/lib\libfreetype.a(type1cid.o)
 .data          0x00000000        0x0 c:/devkitpro/devkitppc/bin/../lib/gcc/powerpc-gekko/4.2.3/../../../../powerpc-gekko/lib\libfreetype.a(pfr.o)
 .bss           0x00000000        0x0 c:/devkitpro/devkitppc/bin/../lib/gcc/powerpc-gekko/4.2.3/../../../../powerpc-gekko/lib\libfreetype.a(pfr.o)
 .data          0x00000000        0x0 c:/devkitpro/devkitppc/bin/../lib/gcc/powerpc-gekko/4.2.3/../../../../powerpc-gekko/lib\libfreetype.a(type42.o)
 .bss           0x00000000        0x0 c:/devkitpro/devkitppc/bin/../lib/gcc/powerpc-gekko/4.2.3/../../../../powerpc-gekko/lib\libfreetype.a(type42.o)
 .data          0x00000000        0x0 c:/devkitpro/devkitppc/bin/../lib/gcc/powerpc-gekko/4.2.3/../../../../powerpc-gekko/lib\libfreetype.a(winfnt.o)
 .bss           0x00000000        0x0 c:/devkitpro/devkitppc/bin/../lib/gcc/powerpc-gekko/4.2.3/../../../../powerpc-gekko/lib\libfreetype.a(winfnt.o)
 .data          0x00000000        0x0 c:/devkitpro/devkitppc/bin/../lib/gcc/powerpc-gekko/4.2.3/../../../../powerpc-gekko/lib\libfreetype.a(pcf.o)
 .bss           0x00000000        0x0 c:/devkitpro/devkitppc/bin/../lib/gcc/powerpc-gekko/4.2.3/../../../../powerpc-gekko/lib\libfreetype.a(pcf.o)
 .data          0x00000000        0x0 c:/devkitpro/devkitppc/bin/../lib/gcc/powerpc-gekko/4.2.3/../../../../powerpc-gekko/lib\libfreetype.a(bdf.o)
 .bss           0x00000000        0x0 c:/devkitpro/devkitppc/bin/../lib/gcc/powerpc-gekko/4.2.3/../../../../powerpc-gekko/lib\libfreetype.a(bdf.o)
 .data          0x00000000        0x0 c:/devkitpro/devkitppc/bin/../lib/gcc/powerpc-gekko/4.2.3/../../../../powerpc-gekko/lib\libfreetype.a(sfnt.o)
 .bss           0x00000000        0x0 c:/devkitpro/devkitppc/bin/../lib/gcc/powerpc-gekko/4.2.3/../../../../powerpc-gekko/lib\libfreetype.a(sfnt.o)
 .data          0x00000000        0x0 c:/devkitpro/devkitppc/bin/../lib/gcc/powerpc-gekko/4.2.3/../../../../powerpc-gekko/lib\libfreetype.a(autofit.o)
 .bss           0x00000000        0x0 c:/devkitpro/devkitppc/bin/../lib/gcc/powerpc-gekko/4.2.3/../../../../powerpc-gekko/lib\libfreetype.a(autofit.o)
 .data          0x00000000        0x0 c:/devkitpro/devkitppc/bin/../lib/gcc/powerpc-gekko/4.2.3/../../../../powerpc-gekko/lib\libfreetype.a(pshinter.o)
 .bss           0x00000000        0x0 c:/devkitpro/devkitppc/bin/../lib/gcc/powerpc-gekko/4.2.3/../../../../powerpc-gekko/lib\libfreetype.a(pshinter.o)
 .data          0x00000000        0x0 c:/devkitpro/devkitppc/bin/../lib/gcc/powerpc-gekko/4.2.3/../../../../powerpc-gekko/lib\libfreetype.a(raster.o)
 .bss           0x00000000        0x0 c:/devkitpro/devkitppc/bin/../lib/gcc/powerpc-gekko/4.2.3/../../../../powerpc-gekko/lib\libfreetype.a(raster.o)
 .data          0x00000000        0x0 c:/devkitpro/devkitppc/bin/../lib/gcc/powerpc-gekko/4.2.3/../../../../powerpc-gekko/lib\libfreetype.a(smooth.o)
 .bss           0x00000000        0x0 c:/devkitpro/devkitppc/bin/../lib/gcc/powerpc-gekko/4.2.3/../../../../powerpc-gekko/lib\libfreetype.a(smooth.o)
 .data          0x00000000        0x0 c:/devkitpro/devkitppc/bin/../lib/gcc/powerpc-gekko/4.2.3/../../../../powerpc-gekko/lib\libfreetype.a(ftgzip.o)
 .bss           0x00000000        0x0 c:/devkitpro/devkitppc/bin/../lib/gcc/powerpc-gekko/4.2.3/../../../../powerpc-gekko/lib\libfreetype.a(ftgzip.o)
 .data          0x00000000        0x0 c:/devkitpro/devkitppc/bin/../lib/gcc/powerpc-gekko/4.2.3/../../../../powerpc-gekko/lib\libfreetype.a(ftlzw.o)
 .bss           0x00000000        0x0 c:/devkitpro/devkitppc/bin/../lib/gcc/powerpc-gekko/4.2.3/../../../../powerpc-gekko/lib\libfreetype.a(ftlzw.o)
 .data          0x00000000        0x0 c:/devkitpro/devkitppc/bin/../lib/gcc/powerpc-gekko/4.2.3/../../../../powerpc-gekko/lib\libfreetype.a(psaux.o)
 .bss           0x00000000        0x0 c:/devkitpro/devkitppc/bin/../lib/gcc/powerpc-gekko/4.2.3/../../../../powerpc-gekko/lib\libfreetype.a(psaux.o)
 .data          0x00000000        0x0 c:/devkitpro/devkitppc/bin/../lib/gcc/powerpc-gekko/4.2.3/../../../../powerpc-gekko/lib\libfreetype.a(psnames.o)
 .bss           0x00000000        0x0 c:/devkitpro/devkitppc/bin/../lib/gcc/powerpc-gekko/4.2.3/../../../../powerpc-gekko/lib\libfreetype.a(psnames.o)
 .data          0x00000000        0x0 c:/devkitpro/devkitppc/bin/../lib/gcc/powerpc-gekko/4.2.3/../../../../powerpc-gekko/lib\libfreetype.a(ftsystem.o)
 .bss           0x00000000        0x0 c:/devkitpro/devkitppc/bin/../lib/gcc/powerpc-gekko/4.2.3/../../../../powerpc-gekko/lib\libfreetype.a(ftsystem.o)
 .data          0x00000000        0x0 c:/devkitpro/devkitppc/bin/../lib/gcc/powerpc-gekko/4.2.3/../../../../powerpc-gekko/lib\libfreetype.a(ftglyph.o)
 .bss           0x00000000        0x0 c:/devkitpro/devkitppc/bin/../lib/gcc/powerpc-gekko/4.2.3/../../../../powerpc-gekko/lib\libfreetype.a(ftglyph.o)
 .data          0x00000000        0x0 c:/devkitpro/devkitppc/bin/../lib/gcc/powerpc-gekko/4.2.3/../../../../powerpc-gekko/lib\libfreetype.a(ftbitmap.o)
 .bss           0x00000000        0x0 c:/devkitpro/devkitppc/bin/../lib/gcc/powerpc-gekko/4.2.3/../../../../powerpc-gekko/lib\libfreetype.a(ftbitmap.o)
 .data          0x00000000        0x0 c:/devkitpro/devkitppc/bin/../lib/gcc/powerpc-gekko/4.2.3/../../../../powerpc-gekko/lib\libjpeg.a(jpgogc.o)
 .data          0x00000000        0x0 c:/devkitpro/devkitppc/bin/../lib/gcc/powerpc-gekko/4.2.3/../../../../powerpc-gekko/lib\libjpeg.a(jmemsrc.o)
 .bss           0x00000000        0x0 c:/devkitpro/devkitppc/bin/../lib/gcc/powerpc-gekko/4.2.3/../../../../powerpc-gekko/lib\libjpeg.a(jmemsrc.o)
 .data          0x00000000        0x0 c:/devkitpro/devkitppc/bin/../lib/gcc/powerpc-gekko/4.2.3/../../../../powerpc-gekko/lib\libjpeg.a(jdapimin.o)
 .bss           0x00000000        0x0 c:/devkitpro/devkitppc/bin/../lib/gcc/powerpc-gekko/4.2.3/../../../../powerpc-gekko/lib\libjpeg.a(jdapimin.o)
 .data          0x00000000        0x0 c:/devkitpro/devkitppc/bin/../lib/gcc/powerpc-gekko/4.2.3/../../../../powerpc-gekko/lib\libjpeg.a(jdapistd.o)
 .bss           0x00000000        0x0 c:/devkitpro/devkitppc/bin/../lib/gcc/powerpc-gekko/4.2.3/../../../../powerpc-gekko/lib\libjpeg.a(jdapistd.o)
 .data          0x00000000        0x0 c:/devkitpro/devkitppc/bin/../lib/gcc/powerpc-gekko/4.2.3/../../../../powerpc-gekko/lib\libjpeg.a(jdinput.o)
 .bss           0x00000000        0x0 c:/devkitpro/devkitppc/bin/../lib/gcc/powerpc-gekko/4.2.3/../../../../powerpc-gekko/lib\libjpeg.a(jdinput.o)
 .data          0x00000000        0x0 c:/devkitpro/devkitppc/bin/../lib/gcc/powerpc-gekko/4.2.3/../../../../powerpc-gekko/lib\libjpeg.a(jdmarker.o)
 .bss           0x00000000        0x0 c:/devkitpro/devkitppc/bin/../lib/gcc/powerpc-gekko/4.2.3/../../../../powerpc-gekko/lib\libjpeg.a(jdmarker.o)
 .data          0x00000000        0x0 c:/devkitpro/devkitppc/bin/../lib/gcc/powerpc-gekko/4.2.3/../../../../powerpc-gekko/lib\libjpeg.a(jdmaster.o)
 .bss           0x00000000        0x0 c:/devkitpro/devkitppc/bin/../lib/gcc/powerpc-gekko/4.2.3/../../../../powerpc-gekko/lib\libjpeg.a(jdmaster.o)
 .data          0x00000000        0x0 c:/devkitpro/devkitppc/bin/../lib/gcc/powerpc-gekko/4.2.3/../../../../powerpc-gekko/lib\libjpeg.a(jdmerge.o)
 .bss           0x00000000        0x0 c:/devkitpro/devkitppc/bin/../lib/gcc/powerpc-gekko/4.2.3/../../../../powerpc-gekko/lib\libjpeg.a(jdmerge.o)
 .data          0x00000000        0x0 c:/devkitpro/devkitppc/bin/../lib/gcc/powerpc-gekko/4.2.3/../../../../powerpc-gekko/lib\libjpeg.a(jdphuff.o)
 .bss           0x00000000        0x0 c:/devkitpro/devkitppc/bin/../lib/gcc/powerpc-gekko/4.2.3/../../../../powerpc-gekko/lib\libjpeg.a(jdphuff.o)
 .data          0x00000000        0x0 c:/devkitpro/devkitppc/bin/../lib/gcc/powerpc-gekko/4.2.3/../../../../powerpc-gekko/lib\libjpeg.a(jdpostct.o)
 .bss           0x00000000        0x0 c:/devkitpro/devkitppc/bin/../lib/gcc/powerpc-gekko/4.2.3/../../../../powerpc-gekko/lib\libjpeg.a(jdpostct.o)
 .data          0x00000000        0x0 c:/devkitpro/devkitppc/bin/../lib/gcc/powerpc-gekko/4.2.3/../../../../powerpc-gekko/lib\libjpeg.a(jdsample.o)
 .bss           0x00000000        0x0 c:/devkitpro/devkitppc/bin/../lib/gcc/powerpc-gekko/4.2.3/../../../../powerpc-gekko/lib\libjpeg.a(jdsample.o)
 .data          0x00000000        0x0 c:/devkitpro/devkitppc/bin/../lib/gcc/powerpc-gekko/4.2.3/../../../../powerpc-gekko/lib\libjpeg.a(jerror.o)
 .bss           0x00000000        0x0 c:/devkitpro/devkitppc/bin/../lib/gcc/powerpc-gekko/4.2.3/../../../../powerpc-gekko/lib\libjpeg.a(jerror.o)
 .data          0x00000000        0x0 c:/devkitpro/devkitppc/bin/../lib/gcc/powerpc-gekko/4.2.3/../../../../powerpc-gekko/lib\libjpeg.a(jmemmgr.o)
 .bss           0x00000000        0x0 c:/devkitpro/devkitppc/bin/../lib/gcc/powerpc-gekko/4.2.3/../../../../powerpc-gekko/lib\libjpeg.a(jmemmgr.o)
 .data          0x00000000        0x0 c:/devkitpro/devkitppc/bin/../lib/gcc/powerpc-gekko/4.2.3/../../../../powerpc-gekko/lib\libjpeg.a(jmemnobs.o)
 .bss           0x00000000        0x0 c:/devkitpro/devkitppc/bin/../lib/gcc/powerpc-gekko/4.2.3/../../../../powerpc-gekko/lib\libjpeg.a(jmemnobs.o)
 .data          0x00000000        0x0 c:/devkitpro/devkitppc/bin/../lib/gcc/powerpc-gekko/4.2.3/../../../../powerpc-gekko/lib\libjpeg.a(jquant1.o)
 .bss           0x00000000        0x0 c:/devkitpro/devkitppc/bin/../lib/gcc/powerpc-gekko/4.2.3/../../../../powerpc-gekko/lib\libjpeg.a(jquant1.o)
 .data          0x00000000        0x0 c:/devkitpro/devkitppc/bin/../lib/gcc/powerpc-gekko/4.2.3/../../../../powerpc-gekko/lib\libjpeg.a(jquant2.o)
 .bss           0x00000000        0x0 c:/devkitpro/devkitppc/bin/../lib/gcc/powerpc-gekko/4.2.3/../../../../powerpc-gekko/lib\libjpeg.a(jquant2.o)
 .data          0x00000000        0x0 c:/devkitpro/devkitppc/bin/../lib/gcc/powerpc-gekko/4.2.3/../../../../powerpc-gekko/lib\libjpeg.a(jutils.o)
 .bss           0x00000000        0x0 c:/devkitpro/devkitppc/bin/../lib/gcc/powerpc-gekko/4.2.3/../../../../powerpc-gekko/lib\libjpeg.a(jutils.o)
 .data          0x00000000        0x0 c:/devkitpro/devkitppc/bin/../lib/gcc/powerpc-gekko/4.2.3/../../../../powerpc-gekko/lib\libjpeg.a(jcomapi.o)
 .bss           0x00000000        0x0 c:/devkitpro/devkitppc/bin/../lib/gcc/powerpc-gekko/4.2.3/../../../../powerpc-gekko/lib\libjpeg.a(jcomapi.o)
 .data          0x00000000        0x0 c:/devkitpro/devkitppc/bin/../lib/gcc/powerpc-gekko/4.2.3/../../../../powerpc-gekko/lib\libjpeg.a(jdcoefct.o)
 .bss           0x00000000        0x0 c:/devkitpro/devkitppc/bin/../lib/gcc/powerpc-gekko/4.2.3/../../../../powerpc-gekko/lib\libjpeg.a(jdcoefct.o)
 .data          0x00000000        0x0 c:/devkitpro/devkitppc/bin/../lib/gcc/powerpc-gekko/4.2.3/../../../../powerpc-gekko/lib\libjpeg.a(jdcolor.o)
 .bss           0x00000000        0x0 c:/devkitpro/devkitppc/bin/../lib/gcc/powerpc-gekko/4.2.3/../../../../powerpc-gekko/lib\libjpeg.a(jdcolor.o)
 .data          0x00000000        0x0 c:/devkitpro/devkitppc/bin/../lib/gcc/powerpc-gekko/4.2.3/../../../../powerpc-gekko/lib\libjpeg.a(jddctmgr.o)
 .bss           0x00000000        0x0 c:/devkitpro/devkitppc/bin/../lib/gcc/powerpc-gekko/4.2.3/../../../../powerpc-gekko/lib\libjpeg.a(jddctmgr.o)
 .data          0x00000000        0x0 c:/devkitpro/devkitppc/bin/../lib/gcc/powerpc-gekko/4.2.3/../../../../powerpc-gekko/lib\libjpeg.a(jdhuff.o)
 .bss           0x00000000        0x0 c:/devkitpro/devkitppc/bin/../lib/gcc/powerpc-gekko/4.2.3/../../../../powerpc-gekko/lib\libjpeg.a(jdhuff.o)
 .data          0x00000000        0x0 c:/devkitpro/devkitppc/bin/../lib/gcc/powerpc-gekko/4.2.3/../../../../powerpc-gekko/lib\libjpeg.a(jdmainct.o)
 .bss           0x00000000        0x0 c:/devkitpro/devkitppc/bin/../lib/gcc/powerpc-gekko/4.2.3/../../../../powerpc-gekko/lib\libjpeg.a(jdmainct.o)
 .data          0x00000000        0x0 c:/devkitpro/devkitppc/bin/../lib/gcc/powerpc-gekko/4.2.3/../../../../powerpc-gekko/lib\libjpeg.a(jidctflt.o)
 .bss           0x00000000        0x0 c:/devkitpro/devkitppc/bin/../lib/gcc/powerpc-gekko/4.2.3/../../../../powerpc-gekko/lib\libjpeg.a(jidctflt.o)
 .data          0x00000000        0x0 c:/devkitpro/devkitppc/bin/../lib/gcc/powerpc-gekko/4.2.3/../../../../powerpc-gekko/lib\libjpeg.a(jidctfst.o)
 .bss           0x00000000        0x0 c:/devkitpro/devkitppc/bin/../lib/gcc/powerpc-gekko/4.2.3/../../../../powerpc-gekko/lib\libjpeg.a(jidctfst.o)
 .data          0x00000000        0x0 c:/devkitpro/devkitppc/bin/../lib/gcc/powerpc-gekko/4.2.3/../../../../powerpc-gekko/lib\libjpeg.a(jidctint.o)
 .bss           0x00000000        0x0 c:/devkitpro/devkitppc/bin/../lib/gcc/powerpc-gekko/4.2.3/../../../../powerpc-gekko/lib\libjpeg.a(jidctint.o)
 .data          0x00000000        0x0 c:/devkitpro/devkitppc/bin/../lib/gcc/powerpc-gekko/4.2.3/../../../../powerpc-gekko/lib\libjpeg.a(jidctred.o)
 .bss           0x00000000        0x0 c:/devkitpro/devkitppc/bin/../lib/gcc/powerpc-gekko/4.2.3/../../../../powerpc-gekko/lib\libjpeg.a(jidctred.o)
 .data          0x00000000        0x0 c:/devkitpro/devkitppc/bin/../lib/gcc/powerpc-gekko/4.2.3\libgcc.a(_udivdi3.o)
 .bss           0x00000000        0x0 c:/devkitpro/devkitppc/bin/../lib/gcc/powerpc-gekko/4.2.3\libgcc.a(_udivdi3.o)
 .data          0x00000000        0x0 c:/devkitpro/devkitppc/bin/../lib/gcc/powerpc-gekko/4.2.3/../../../../powerpc-gekko/lib\libsysbase.a(abort.o)
 .bss           0x00000000        0x0 c:/devkitpro/devkitppc/bin/../lib/gcc/powerpc-gekko/4.2.3/../../../../powerpc-gekko/lib\libsysbase.a(abort.o)
 .bss           0x00000000        0x0 c:/devkitpro/devkitppc/bin/../lib/gcc/powerpc-gekko/4.2.3/../../../../powerpc-gekko/lib\libsysbase.a(iosupport.o)
 .data          0x00000000        0x0 c:/devkitpro/devkitppc/bin/../lib/gcc/powerpc-gekko/4.2.3/../../../../powerpc-gekko/lib\libsysbase.a(_exit.o)
 .bss           0x00000000        0x0 c:/devkitpro/devkitppc/bin/../lib/gcc/powerpc-gekko/4.2.3/../../../../powerpc-gekko/lib\libsysbase.a(_exit.o)
 .data          0x00000000        0x0 c:/devkitpro/devkitppc/bin/../lib/gcc/powerpc-gekko/4.2.3/../../../../powerpc-gekko/lib\libsysbase.a(build_argv.o)
 .bss           0x00000000        0x0 c:/devkitpro/devkitppc/bin/../lib/gcc/powerpc-gekko/4.2.3/../../../../powerpc-gekko/lib\libsysbase.a(build_argv.o)
 .data          0x00000000        0x0 c:/devkitpro/devkitppc/bin/../lib/gcc/powerpc-gekko/4.2.3/../../../../powerpc-gekko/lib\libsysbase.a(syscall_support.o)
 .data          0x00000000        0x0 c:/devkitpro/devkitppc/bin/../lib/gcc/powerpc-gekko/4.2.3/../../../../powerpc-gekko/lib\libc.a(lib_a-atol.o)
 .bss           0x00000000        0x0 c:/devkitpro/devkitppc/bin/../lib/gcc/powerpc-gekko/4.2.3/../../../../powerpc-gekko/lib\libc.a(lib_a-atol.o)
 .data          0x00000000        0x0 c:/devkitpro/devkitppc/bin/../lib/gcc/powerpc-gekko/4.2.3/../../../../powerpc-gekko/lib\libc.a(lib_a-calloc.o)
 .bss           0x00000000        0x0 c:/devkitpro/devkitppc/bin/../lib/gcc/powerpc-gekko/4.2.3/../../../../powerpc-gekko/lib\libc.a(lib_a-calloc.o)
 .data          0x00000000        0x0 c:/devkitpro/devkitppc/bin/../lib/gcc/powerpc-gekko/4.2.3/../../../../powerpc-gekko/lib\libc.a(lib_a-callocr.o)
 .bss           0x00000000        0x0 c:/devkitpro/devkitppc/bin/../lib/gcc/powerpc-gekko/4.2.3/../../../../powerpc-gekko/lib\libc.a(lib_a-callocr.o)
 .data          0x00000000        0x0 c:/devkitpro/devkitppc/bin/../lib/gcc/powerpc-gekko/4.2.3/../../../../powerpc-gekko/lib\libc.a(lib_a-ctime.o)
 .bss           0x00000000        0x0 c:/devkitpro/devkitppc/bin/../lib/gcc/powerpc-gekko/4.2.3/../../../../powerpc-gekko/lib\libc.a(lib_a-ctime.o)
 .text          0x00000000        0x0 c:/devkitpro/devkitppc/bin/../lib/gcc/powerpc-gekko/4.2.3/../../../../powerpc-gekko/lib\libc.a(lib_a-ctype_.o)
 .data          0x00000000        0x0 c:/devkitpro/devkitppc/bin/../lib/gcc/powerpc-gekko/4.2.3/../../../../powerpc-gekko/lib\libc.a(lib_a-ctype_.o)
 .bss           0x00000000        0x0 c:/devkitpro/devkitppc/bin/../lib/gcc/powerpc-gekko/4.2.3/../../../../powerpc-gekko/lib\libc.a(lib_a-ctype_.o)
 .data          0x00000000        0x0 c:/devkitpro/devkitppc/bin/../lib/gcc/powerpc-gekko/4.2.3/../../../../powerpc-gekko/lib\libc.a(lib_a-errno.o)
 .bss           0x00000000        0x0 c:/devkitpro/devkitppc/bin/../lib/gcc/powerpc-gekko/4.2.3/../../../../powerpc-gekko/lib\libc.a(lib_a-errno.o)
 .data          0x00000000        0x0 c:/devkitpro/devkitppc/bin/../lib/gcc/powerpc-gekko/4.2.3/../../../../powerpc-gekko/lib\libc.a(lib_a-exit.o)
 .bss           0x00000000        0x0 c:/devkitpro/devkitppc/bin/../lib/gcc/powerpc-gekko/4.2.3/../../../../powerpc-gekko/lib\libc.a(lib_a-exit.o)
 .data          0x00000000        0x0 c:/devkitpro/devkitppc/bin/../lib/gcc/powerpc-gekko/4.2.3/../../../../powerpc-gekko/lib\libc.a(lib_a-fclose.o)
 .bss           0x00000000        0x0 c:/devkitpro/devkitppc/bin/../lib/gcc/powerpc-gekko/4.2.3/../../../../powerpc-gekko/lib\libc.a(lib_a-fclose.o)
 .data          0x00000000        0x0 c:/devkitpro/devkitppc/bin/../lib/gcc/powerpc-gekko/4.2.3/../../../../powerpc-gekko/lib\libc.a(lib_a-fflush.o)
 .bss           0x00000000        0x0 c:/devkitpro/devkitppc/bin/../lib/gcc/powerpc-gekko/4.2.3/../../../../powerpc-gekko/lib\libc.a(lib_a-fflush.o)
 .data          0x00000000        0x0 c:/devkitpro/devkitppc/bin/../lib/gcc/powerpc-gekko/4.2.3/../../../../powerpc-gekko/lib\libc.a(lib_a-findfp.o)
 .data          0x00000000        0x0 c:/devkitpro/devkitppc/bin/../lib/gcc/powerpc-gekko/4.2.3/../../../../powerpc-gekko/lib\libc.a(lib_a-fopen.o)
 .bss           0x00000000        0x0 c:/devkitpro/devkitppc/bin/../lib/gcc/powerpc-gekko/4.2.3/../../../../powerpc-gekko/lib\libc.a(lib_a-fopen.o)
 .data          0x00000000        0x0 c:/devkitpro/devkitppc/bin/../lib/gcc/powerpc-gekko/4.2.3/../../../../powerpc-gekko/lib\libc.a(lib_a-fprintf.o)
 .bss           0x00000000        0x0 c:/devkitpro/devkitppc/bin/../lib/gcc/powerpc-gekko/4.2.3/../../../../powerpc-gekko/lib\libc.a(lib_a-fprintf.o)
 .data          0x00000000        0x0 c:/devkitpro/devkitppc/bin/../lib/gcc/powerpc-gekko/4.2.3/../../../../powerpc-gekko/lib\libc.a(lib_a-fread.o)
 .bss           0x00000000        0x0 c:/devkitpro/devkitppc/bin/../lib/gcc/powerpc-gekko/4.2.3/../../../../powerpc-gekko/lib\libc.a(lib_a-fread.o)
 .data          0x00000000        0x0 c:/devkitpro/devkitppc/bin/../lib/gcc/powerpc-gekko/4.2.3/../../../../powerpc-gekko/lib\libc.a(lib_a-freer.o)
 .bss           0x00000000        0x0 c:/devkitpro/devkitppc/bin/../lib/gcc/powerpc-gekko/4.2.3/../../../../powerpc-gekko/lib\libc.a(lib_a-freer.o)
 .data          0x00000000        0x0 c:/devkitpro/devkitppc/bin/../lib/gcc/powerpc-gekko/4.2.3/../../../../powerpc-gekko/lib\libc.a(lib_a-fseek.o)
 .bss           0x00000000        0x0 c:/devkitpro/devkitppc/bin/../lib/gcc/powerpc-gekko/4.2.3/../../../../powerpc-gekko/lib\libc.a(lib_a-fseek.o)
 .data          0x00000000        0x0 c:/devkitpro/devkitppc/bin/../lib/gcc/powerpc-gekko/4.2.3/../../../../powerpc-gekko/lib\libc.a(lib_a-ftell.o)
 .bss           0x00000000        0x0 c:/devkitpro/devkitppc/bin/../lib/gcc/powerpc-gekko/4.2.3/../../../../powerpc-gekko/lib\libc.a(lib_a-ftell.o)
 .data          0x00000000        0x0 c:/devkitpro/devkitppc/bin/../lib/gcc/powerpc-gekko/4.2.3/../../../../powerpc-gekko/lib\libc.a(lib_a-fwalk.o)
 .bss           0x00000000        0x0 c:/devkitpro/devkitppc/bin/../lib/gcc/powerpc-gekko/4.2.3/../../../../powerpc-gekko/lib\libc.a(lib_a-fwalk.o)
 .data          0x00000000        0x0 c:/devkitpro/devkitppc/bin/../lib/gcc/powerpc-gekko/4.2.3/../../../../powerpc-gekko/lib\libc.a(lib_a-getenv.o)
 .bss           0x00000000        0x0 c:/devkitpro/devkitppc/bin/../lib/gcc/powerpc-gekko/4.2.3/../../../../powerpc-gekko/lib\libc.a(lib_a-getenv.o)
 .data          0x00000000        0x0 c:/devkitpro/devkitppc/bin/../lib/gcc/powerpc-gekko/4.2.3/../../../../powerpc-gekko/lib\libc.a(lib_a-getenv_r.o)
 .bss           0x00000000        0x0 c:/devkitpro/devkitppc/bin/../lib/gcc/powerpc-gekko/4.2.3/../../../../powerpc-gekko/lib\libc.a(lib_a-getenv_r.o)
 .text          0x00000000        0x0 c:/devkitpro/devkitppc/bin/../lib/gcc/powerpc-gekko/4.2.3/../../../../powerpc-gekko/lib\libc.a(lib_a-impure.o)
 .bss           0x00000000        0x0 c:/devkitpro/devkitppc/bin/../lib/gcc/powerpc-gekko/4.2.3/../../../../powerpc-gekko/lib\libc.a(lib_a-impure.o)
 .data          0x00000000        0x0 c:/devkitpro/devkitppc/bin/../lib/gcc/powerpc-gekko/4.2.3/../../../../powerpc-gekko/lib\libc.a(lib_a-lcltime.o)
 .bss           0x00000000        0x0 c:/devkitpro/devkitppc/bin/../lib/gcc/powerpc-gekko/4.2.3/../../../../powerpc-gekko/lib\libc.a(lib_a-lcltime.o)
 .data          0x00000000        0x0 c:/devkitpro/devkitppc/bin/../lib/gcc/powerpc-gekko/4.2.3/../../../../powerpc-gekko/lib\libc.a(lib_a-lcltime_r.o)
 .bss           0x00000000        0x0 c:/devkitpro/devkitppc/bin/../lib/gcc/powerpc-gekko/4.2.3/../../../../powerpc-gekko/lib\libc.a(lib_a-lcltime_r.o)
 .data          0x00000000        0x0 c:/devkitpro/devkitppc/bin/../lib/gcc/powerpc-gekko/4.2.3/../../../../powerpc-gekko/lib\libc.a(lib_a-makebuf.o)
 .bss           0x00000000        0x0 c:/devkitpro/devkitppc/bin/../lib/gcc/powerpc-gekko/4.2.3/../../../../powerpc-gekko/lib\libc.a(lib_a-makebuf.o)
 .data          0x00000000        0x0 c:/devkitpro/devkitppc/bin/../lib/gcc/powerpc-gekko/4.2.3/../../../../powerpc-gekko/lib\libc.a(lib_a-malign.o)
 .bss           0x00000000        0x0 c:/devkitpro/devkitppc/bin/../lib/gcc/powerpc-gekko/4.2.3/../../../../powerpc-gekko/lib\libc.a(lib_a-malign.o)
 .data          0x00000000        0x0 c:/devkitpro/devkitppc/bin/../lib/gcc/powerpc-gekko/4.2.3/../../../../powerpc-gekko/lib\libc.a(lib_a-malignr.o)
 .bss           0x00000000        0x0 c:/devkitpro/devkitppc/bin/../lib/gcc/powerpc-gekko/4.2.3/../../../../powerpc-gekko/lib\libc.a(lib_a-malignr.o)
 .data          0x00000000        0x0 c:/devkitpro/devkitppc/bin/../lib/gcc/powerpc-gekko/4.2.3/../../../../powerpc-gekko/lib\libc.a(lib_a-malloc.o)
 .bss           0x00000000        0x0 c:/devkitpro/devkitppc/bin/../lib/gcc/powerpc-gekko/4.2.3/../../../../powerpc-gekko/lib\libc.a(lib_a-malloc.o)
 .data          0x00000000        0x0 c:/devkitpro/devkitppc/bin/../lib/gcc/powerpc-gekko/4.2.3/../../../../powerpc-gekko/lib\libc.a(lib_a-memchr.o)
 .bss           0x00000000        0x0 c:/devkitpro/devkitppc/bin/../lib/gcc/powerpc-gekko/4.2.3/../../../../powerpc-gekko/lib\libc.a(lib_a-memchr.o)
 .data          0x00000000        0x0 c:/devkitpro/devkitppc/bin/../lib/gcc/powerpc-gekko/4.2.3/../../../../powerpc-gekko/lib\libc.a(lib_a-memcmp.o)
 .bss           0x00000000        0x0 c:/devkitpro/devkitppc/bin/../lib/gcc/powerpc-gekko/4.2.3/../../../../powerpc-gekko/lib\libc.a(lib_a-memcmp.o)
 .data          0x00000000        0x0 c:/devkitpro/devkitppc/bin/../lib/gcc/powerpc-gekko/4.2.3/../../../../powerpc-gekko/lib\libc.a(lib_a-memcpy.o)
 .bss           0x00000000        0x0 c:/devkitpro/devkitppc/bin/../lib/gcc/powerpc-gekko/4.2.3/../../../../powerpc-gekko/lib\libc.a(lib_a-memcpy.o)
 .data          0x00000000        0x0 c:/devkitpro/devkitppc/bin/../lib/gcc/powerpc-gekko/4.2.3/../../../../powerpc-gekko/lib\libc.a(lib_a-memmove.o)
 .bss           0x00000000        0x0 c:/devkitpro/devkitppc/bin/../lib/gcc/powerpc-gekko/4.2.3/../../../../powerpc-gekko/lib\libc.a(lib_a-memmove.o)
 .data          0x00000000        0x0 c:/devkitpro/devkitppc/bin/../lib/gcc/powerpc-gekko/4.2.3/../../../../powerpc-gekko/lib\libc.a(lib_a-memset.o)
 .bss           0x00000000        0x0 c:/devkitpro/devkitppc/bin/../lib/gcc/powerpc-gekko/4.2.3/../../../../powerpc-gekko/lib\libc.a(lib_a-memset.o)
 .data          0x00000000        0x0 c:/devkitpro/devkitppc/bin/../lib/gcc/powerpc-gekko/4.2.3/../../../../powerpc-gekko/lib\libc.a(lib_a-mktm_r.o)
 .bss           0x00000000        0x0 c:/devkitpro/devkitppc/bin/../lib/gcc/powerpc-gekko/4.2.3/../../../../powerpc-gekko/lib\libc.a(lib_a-mktm_r.o)
 .data          0x00000000        0x0 c:/devkitpro/devkitppc/bin/../lib/gcc/powerpc-gekko/4.2.3/../../../../powerpc-gekko/lib\libc.a(lib_a-printf.o)
 .bss           0x00000000        0x0 c:/devkitpro/devkitppc/bin/../lib/gcc/powerpc-gekko/4.2.3/../../../../powerpc-gekko/lib\libc.a(lib_a-printf.o)
 .data          0x00000000        0x0 c:/devkitpro/devkitppc/bin/../lib/gcc/powerpc-gekko/4.2.3/../../../../powerpc-gekko/lib\libc.a(lib_a-puts.o)
 .bss           0x00000000        0x0 c:/devkitpro/devkitppc/bin/../lib/gcc/powerpc-gekko/4.2.3/../../../../powerpc-gekko/lib\libc.a(lib_a-puts.o)
 .data          0x00000000        0x0 c:/devkitpro/devkitppc/bin/../lib/gcc/powerpc-gekko/4.2.3/../../../../powerpc-gekko/lib\libc.a(lib_a-qsort.o)
 .bss           0x00000000        0x0 c:/devkitpro/devkitppc/bin/../lib/gcc/powerpc-gekko/4.2.3/../../../../powerpc-gekko/lib\libc.a(lib_a-qsort.o)
 .data          0x00000000        0x0 c:/devkitpro/devkitppc/bin/../lib/gcc/powerpc-gekko/4.2.3/../../../../powerpc-gekko/lib\libc.a(lib_a-realloc.o)
 .bss           0x00000000        0x0 c:/devkitpro/devkitppc/bin/../lib/gcc/powerpc-gekko/4.2.3/../../../../powerpc-gekko/lib\libc.a(lib_a-realloc.o)
 .data          0x00000000        0x0 c:/devkitpro/devkitppc/bin/../lib/gcc/powerpc-gekko/4.2.3/../../../../powerpc-gekko/lib\libc.a(lib_a-reallocr.o)
 .bss           0x00000000        0x0 c:/devkitpro/devkitppc/bin/../lib/gcc/powerpc-gekko/4.2.3/../../../../powerpc-gekko/lib\libc.a(lib_a-reallocr.o)
 .data          0x00000000        0x0 c:/devkitpro/devkitppc/bin/../lib/gcc/powerpc-gekko/4.2.3/../../../../powerpc-gekko/lib\libc.a(lib_a-reent.o)
 .bss           0x00000000        0x0 c:/devkitpro/devkitppc/bin/../lib/gcc/powerpc-gekko/4.2.3/../../../../powerpc-gekko/lib\libc.a(lib_a-reent.o)
 .data          0x00000000        0x0 c:/devkitpro/devkitppc/bin/../lib/gcc/powerpc-gekko/4.2.3/../../../../powerpc-gekko/lib\libc.a(lib_a-refill.o)
 .bss           0x00000000        0x0 c:/devkitpro/devkitppc/bin/../lib/gcc/powerpc-gekko/4.2.3/../../../../powerpc-gekko/lib\libc.a(lib_a-refill.o)
 .data          0x00000000        0x0 c:/devkitpro/devkitppc/bin/../lib/gcc/powerpc-gekko/4.2.3/../../../../powerpc-gekko/lib\libc.a(lib_a-setjmp.o)
 .bss           0x00000000        0x0 c:/devkitpro/devkitppc/bin/../lib/gcc/powerpc-gekko/4.2.3/../../../../powerpc-gekko/lib\libc.a(lib_a-setjmp.o)
 .data          0x00000000        0x0 c:/devkitpro/devkitppc/bin/../lib/gcc/powerpc-gekko/4.2.3/../../../../powerpc-gekko/lib\libc.a(lib_a-setvbuf.o)
 .bss           0x00000000        0x0 c:/devkitpro/devkitppc/bin/../lib/gcc/powerpc-gekko/4.2.3/../../../../powerpc-gekko/lib\libc.a(lib_a-setvbuf.o)
 .data          0x00000000        0x0 c:/devkitpro/devkitppc/bin/../lib/gcc/powerpc-gekko/4.2.3/../../../../powerpc-gekko/lib\libc.a(lib_a-sprintf.o)
 .bss           0x00000000        0x0 c:/devkitpro/devkitppc/bin/../lib/gcc/powerpc-gekko/4.2.3/../../../../powerpc-gekko/lib\libc.a(lib_a-sprintf.o)
 .data          0x00000000        0x0 c:/devkitpro/devkitppc/bin/../lib/gcc/powerpc-gekko/4.2.3/../../../../powerpc-gekko/lib\libc.a(lib_a-sscanf.o)
 .bss           0x00000000        0x0 c:/devkitpro/devkitppc/bin/../lib/gcc/powerpc-gekko/4.2.3/../../../../powerpc-gekko/lib\libc.a(lib_a-sscanf.o)
 .data          0x00000000        0x0 c:/devkitpro/devkitppc/bin/../lib/gcc/powerpc-gekko/4.2.3/../../../../powerpc-gekko/lib\libc.a(lib_a-stdio.o)
 .bss           0x00000000        0x0 c:/devkitpro/devkitppc/bin/../lib/gcc/powerpc-gekko/4.2.3/../../../../powerpc-gekko/lib\libc.a(lib_a-stdio.o)
 .data          0x00000000        0x0 c:/devkitpro/devkitppc/bin/../lib/gcc/powerpc-gekko/4.2.3/../../../../powerpc-gekko/lib\libc.a(lib_a-strcat.o)
 .bss           0x00000000        0x0 c:/devkitpro/devkitppc/bin/../lib/gcc/powerpc-gekko/4.2.3/../../../../powerpc-gekko/lib\libc.a(lib_a-strcat.o)
 .data          0x00000000        0x0 c:/devkitpro/devkitppc/bin/../lib/gcc/powerpc-gekko/4.2.3/../../../../powerpc-gekko/lib\libc.a(lib_a-strcmp.o)
 .bss           0x00000000        0x0 c:/devkitpro/devkitppc/bin/../lib/gcc/powerpc-gekko/4.2.3/../../../../powerpc-gekko/lib\libc.a(lib_a-strcmp.o)
 .data          0x00000000        0x0 c:/devkitpro/devkitppc/bin/../lib/gcc/powerpc-gekko/4.2.3/../../../../powerpc-gekko/lib\libc.a(lib_a-strcpy.o)
 .bss           0x00000000        0x0 c:/devkitpro/devkitppc/bin/../lib/gcc/powerpc-gekko/4.2.3/../../../../powerpc-gekko/lib\libc.a(lib_a-strcpy.o)
 .data          0x00000000        0x0 c:/devkitpro/devkitppc/bin/../lib/gcc/powerpc-gekko/4.2.3/../../../../powerpc-gekko/lib\libc.a(lib_a-strlen.o)
 .bss           0x00000000        0x0 c:/devkitpro/devkitppc/bin/../lib/gcc/powerpc-gekko/4.2.3/../../../../powerpc-gekko/lib\libc.a(lib_a-strlen.o)
 .text          0x00000000        0x0 c:/devkitpro/devkitppc/bin/../lib/gcc/powerpc-gekko/4.2.3/../../../../powerpc-gekko/lib\libc.a(lib_a-strncasecmp.o)
 .data          0x00000000        0x0 c:/devkitpro/devkitppc/bin/../lib/gcc/powerpc-gekko/4.2.3/../../../../powerpc-gekko/lib\libc.a(lib_a-strncasecmp.o)
 .bss           0x00000000        0x0 c:/devkitpro/devkitppc/bin/../lib/gcc/powerpc-gekko/4.2.3/../../../../powerpc-gekko/lib\libc.a(lib_a-strncasecmp.o)
 .data          0x00000000        0x0 c:/devkitpro/devkitppc/bin/../lib/gcc/powerpc-gekko/4.2.3/../../../../powerpc-gekko/lib\libc.a(lib_a-strncmp.o)
 .bss           0x00000000        0x0 c:/devkitpro/devkitppc/bin/../lib/gcc/powerpc-gekko/4.2.3/../../../../powerpc-gekko/lib\libc.a(lib_a-strncmp.o)
 .data          0x00000000        0x0 c:/devkitpro/devkitppc/bin/../lib/gcc/powerpc-gekko/4.2.3/../../../../powerpc-gekko/lib\libc.a(lib_a-strncpy.o)
 .bss           0x00000000        0x0 c:/devkitpro/devkitppc/bin/../lib/gcc/powerpc-gekko/4.2.3/../../../../powerpc-gekko/lib\libc.a(lib_a-strncpy.o)
 .data          0x00000000        0x0 c:/devkitpro/devkitppc/bin/../lib/gcc/powerpc-gekko/4.2.3/../../../../powerpc-gekko/lib\libc.a(lib_a-strnlen.o)
 .bss           0x00000000        0x0 c:/devkitpro/devkitppc/bin/../lib/gcc/powerpc-gekko/4.2.3/../../../../powerpc-gekko/lib\libc.a(lib_a-strnlen.o)
 .data          0x00000000        0x0 c:/devkitpro/devkitppc/bin/../lib/gcc/powerpc-gekko/4.2.3/../../../../powerpc-gekko/lib\libc.a(lib_a-strrchr.o)
 .bss           0x00000000        0x0 c:/devkitpro/devkitppc/bin/../lib/gcc/powerpc-gekko/4.2.3/../../../../powerpc-gekko/lib\libc.a(lib_a-strrchr.o)
 .data          0x00000000        0x0 c:/devkitpro/devkitppc/bin/../lib/gcc/powerpc-gekko/4.2.3/../../../../powerpc-gekko/lib\libc.a(lib_a-strtol.o)
 .bss           0x00000000        0x0 c:/devkitpro/devkitppc/bin/../lib/gcc/powerpc-gekko/4.2.3/../../../../powerpc-gekko/lib\libc.a(lib_a-strtol.o)
 .data          0x00000000        0x0 c:/devkitpro/devkitppc/bin/../lib/gcc/powerpc-gekko/4.2.3/../../../../powerpc-gekko/lib\libc.a(lib_a-syswrite.o)
 .bss           0x00000000        0x0 c:/devkitpro/devkitppc/bin/../lib/gcc/powerpc-gekko/4.2.3/../../../../powerpc-gekko/lib\libc.a(lib_a-syswrite.o)
 .data          0x00000000        0x0 c:/devkitpro/devkitppc/bin/../lib/gcc/powerpc-gekko/4.2.3/../../../../powerpc-gekko/lib\libc.a(lib_a-tzlock.o)
 .text          0x00000000        0x0 c:/devkitpro/devkitppc/bin/../lib/gcc/powerpc-gekko/4.2.3/../../../../powerpc-gekko/lib\libc.a(lib_a-tzvars.o)
 .data          0x00000000        0x0 c:/devkitpro/devkitppc/bin/../lib/gcc/powerpc-gekko/4.2.3/../../../../powerpc-gekko/lib\libc.a(lib_a-tzvars.o)
 .bss           0x00000000        0x0 c:/devkitpro/devkitppc/bin/../lib/gcc/powerpc-gekko/4.2.3/../../../../powerpc-gekko/lib\libc.a(lib_a-tzvars.o)
 .rodata.str1.4
                0x00000000        0x0 c:/devkitpro/devkitppc/bin/../lib/gcc/powerpc-gekko/4.2.3/../../../../powerpc-gekko/lib\libc.a(lib_a-tzvars.o)
 .sdata         0x00000000        0x0 c:/devkitpro/devkitppc/bin/../lib/gcc/powerpc-gekko/4.2.3/../../../../powerpc-gekko/lib\libc.a(lib_a-tzvars.o)
 .data          0x00000000        0x0 c:/devkitpro/devkitppc/bin/../lib/gcc/powerpc-gekko/4.2.3/../../../../powerpc-gekko/lib\libc.a(lib_a-vfprintf.o)
 .bss           0x00000000        0x0 c:/devkitpro/devkitppc/bin/../lib/gcc/powerpc-gekko/4.2.3/../../../../powerpc-gekko/lib\libc.a(lib_a-vfprintf.o)
 .data          0x00000000        0x0 c:/devkitpro/devkitppc/bin/../lib/gcc/powerpc-gekko/4.2.3/../../../../powerpc-gekko/lib\libc.a(lib_a-vfscanf.o)
 .bss           0x00000000        0x0 c:/devkitpro/devkitppc/bin/../lib/gcc/powerpc-gekko/4.2.3/../../../../powerpc-gekko/lib\libc.a(lib_a-vfscanf.o)
 .data          0x00000000        0x0 c:/devkitpro/devkitppc/bin/../lib/gcc/powerpc-gekko/4.2.3/../../../../powerpc-gekko/lib\libc.a(lib_a-wcrtomb.o)
 .bss           0x00000000        0x0 c:/devkitpro/devkitppc/bin/../lib/gcc/powerpc-gekko/4.2.3/../../../../powerpc-gekko/lib\libc.a(lib_a-wcrtomb.o)
 .data          0x00000000        0x0 c:/devkitpro/devkitppc/bin/../lib/gcc/powerpc-gekko/4.2.3/../../../../powerpc-gekko/lib\libc.a(lib_a-wcsrtombs.o)
 .bss           0x00000000        0x0 c:/devkitpro/devkitppc/bin/../lib/gcc/powerpc-gekko/4.2.3/../../../../powerpc-gekko/lib\libc.a(lib_a-wcsrtombs.o)
 .data          0x00000000        0x0 c:/devkitpro/devkitppc/bin/../lib/gcc/powerpc-gekko/4.2.3/../../../../powerpc-gekko/lib\libc.a(lib_a-wctomb_r.o)
 .bss           0x00000000        0x0 c:/devkitpro/devkitppc/bin/../lib/gcc/powerpc-gekko/4.2.3/../../../../powerpc-gekko/lib\libc.a(lib_a-wctomb_r.o)
 .data          0x00000000        0x0 c:/devkitpro/devkitppc/bin/../lib/gcc/powerpc-gekko/4.2.3/../../../../powerpc-gekko/lib\libc.a(lib_a-wsetup.o)
 .bss           0x00000000        0x0 c:/devkitpro/devkitppc/bin/../lib/gcc/powerpc-gekko/4.2.3/../../../../powerpc-gekko/lib\libc.a(lib_a-wsetup.o)
 .data          0x00000000        0x0 c:/devkitpro/devkitppc/bin/../lib/gcc/powerpc-gekko/4.2.3/../../../../powerpc-gekko/lib\libc.a(lib_a-__call_atexit.o)
 .bss           0x00000000        0x0 c:/devkitpro/devkitppc/bin/../lib/gcc/powerpc-gekko/4.2.3/../../../../powerpc-gekko/lib\libc.a(lib_a-__call_atexit.o)
 .data          0x00000000        0x0 c:/devkitpro/devkitppc/bin/../lib/gcc/powerpc-gekko/4.2.3/../../../../powerpc-gekko/lib\libc.a(lib_a-asctime.o)
 .bss           0x00000000        0x0 c:/devkitpro/devkitppc/bin/../lib/gcc/powerpc-gekko/4.2.3/../../../../powerpc-gekko/lib\libc.a(lib_a-asctime.o)
 .data          0x00000000        0x0 c:/devkitpro/devkitppc/bin/../lib/gcc/powerpc-gekko/4.2.3/../../../../powerpc-gekko/lib\libc.a(lib_a-asctime_r.o)
 .bss           0x00000000        0x0 c:/devkitpro/devkitppc/bin/../lib/gcc/powerpc-gekko/4.2.3/../../../../powerpc-gekko/lib\libc.a(lib_a-asctime_r.o)
 .data          0x00000000        0x0 c:/devkitpro/devkitppc/bin/../lib/gcc/powerpc-gekko/4.2.3/../../../../powerpc-gekko/lib\libc.a(lib_a-dtoa.o)
 .bss           0x00000000        0x0 c:/devkitpro/devkitppc/bin/../lib/gcc/powerpc-gekko/4.2.3/../../../../powerpc-gekko/lib\libc.a(lib_a-dtoa.o)
 .text          0x00000000        0x0 c:/devkitpro/devkitppc/bin/../lib/gcc/powerpc-gekko/4.2.3/../../../../powerpc-gekko/lib\libc.a(lib_a-environ.o)
 .data          0x00000000        0x0 c:/devkitpro/devkitppc/bin/../lib/gcc/powerpc-gekko/4.2.3/../../../../powerpc-gekko/lib\libc.a(lib_a-environ.o)
 .data          0x00000000        0x0 c:/devkitpro/devkitppc/bin/../lib/gcc/powerpc-gekko/4.2.3/../../../../powerpc-gekko/lib\libc.a(lib_a-envlock.o)
 .data          0x00000000        0x0 c:/devkitpro/devkitppc/bin/../lib/gcc/powerpc-gekko/4.2.3/../../../../powerpc-gekko/lib\libc.a(lib_a-flags.o)
 .bss           0x00000000        0x0 c:/devkitpro/devkitppc/bin/../lib/gcc/powerpc-gekko/4.2.3/../../../../powerpc-gekko/lib\libc.a(lib_a-flags.o)
 .data          0x00000000        0x0 c:/devkitpro/devkitppc/bin/../lib/gcc/powerpc-gekko/4.2.3/../../../../powerpc-gekko/lib\libc.a(lib_a-fvwrite.o)
 .bss           0x00000000        0x0 c:/devkitpro/devkitppc/bin/../lib/gcc/powerpc-gekko/4.2.3/../../../../powerpc-gekko/lib\libc.a(lib_a-fvwrite.o)
 .bss           0x00000000        0x0 c:/devkitpro/devkitppc/bin/../lib/gcc/powerpc-gekko/4.2.3/../../../../powerpc-gekko/lib\libc.a(lib_a-gettzinfo.o)
 .data          0x00000000        0x0 c:/devkitpro/devkitppc/bin/../lib/gcc/powerpc-gekko/4.2.3/../../../../powerpc-gekko/lib\libc.a(lib_a-iswspace.o)
 .bss           0x00000000        0x0 c:/devkitpro/devkitppc/bin/../lib/gcc/powerpc-gekko/4.2.3/../../../../powerpc-gekko/lib\libc.a(lib_a-iswspace.o)
 .data          0x00000000        0x0 c:/devkitpro/devkitppc/bin/../lib/gcc/powerpc-gekko/4.2.3/../../../../powerpc-gekko/lib\libc.a(lib_a-jp2uc.o)
 .bss           0x00000000        0x0 c:/devkitpro/devkitppc/bin/../lib/gcc/powerpc-gekko/4.2.3/../../../../powerpc-gekko/lib\libc.a(lib_a-jp2uc.o)
 .bss           0x00000000        0x0 c:/devkitpro/devkitppc/bin/../lib/gcc/powerpc-gekko/4.2.3/../../../../powerpc-gekko/lib\libc.a(lib_a-locale.o)
 .sbss          0x00000000        0x0 c:/devkitpro/devkitppc/bin/../lib/gcc/powerpc-gekko/4.2.3/../../../../powerpc-gekko/lib\libc.a(lib_a-locale.o)
 .data          0x00000000        0x0 c:/devkitpro/devkitppc/bin/../lib/gcc/powerpc-gekko/4.2.3/../../../../powerpc-gekko/lib\libc.a(lib_a-mbrtowc.o)
 .bss           0x00000000        0x0 c:/devkitpro/devkitppc/bin/../lib/gcc/powerpc-gekko/4.2.3/../../../../powerpc-gekko/lib\libc.a(lib_a-mbrtowc.o)
 .data          0x00000000        0x0 c:/devkitpro/devkitppc/bin/../lib/gcc/powerpc-gekko/4.2.3/../../../../powerpc-gekko/lib\libc.a(lib_a-mbtowc_r.o)
 .bss           0x00000000        0x0 c:/devkitpro/devkitppc/bin/../lib/gcc/powerpc-gekko/4.2.3/../../../../powerpc-gekko/lib\libc.a(lib_a-mbtowc_r.o)
 .data          0x00000000        0x0 c:/devkitpro/devkitppc/bin/../lib/gcc/powerpc-gekko/4.2.3/../../../../powerpc-gekko/lib\libc.a(lib_a-mprec.o)
 .bss           0x00000000        0x0 c:/devkitpro/devkitppc/bin/../lib/gcc/powerpc-gekko/4.2.3/../../../../powerpc-gekko/lib\libc.a(lib_a-mprec.o)
 .data          0x00000000        0x0 c:/devkitpro/devkitppc/bin/../lib/gcc/powerpc-gekko/4.2.3/../../../../powerpc-gekko/lib\libc.a(lib_a-s_isinfd.o)
 .bss           0x00000000        0x0 c:/devkitpro/devkitppc/bin/../lib/gcc/powerpc-gekko/4.2.3/../../../../powerpc-gekko/lib\libc.a(lib_a-s_isinfd.o)
 .data          0x00000000        0x0 c:/devkitpro/devkitppc/bin/../lib/gcc/powerpc-gekko/4.2.3/../../../../powerpc-gekko/lib\libc.a(lib_a-s_isnand.o)
 .bss           0x00000000        0x0 c:/devkitpro/devkitppc/bin/../lib/gcc/powerpc-gekko/4.2.3/../../../../powerpc-gekko/lib\libc.a(lib_a-s_isnand.o)
 .data          0x00000000        0x0 c:/devkitpro/devkitppc/bin/../lib/gcc/powerpc-gekko/4.2.3/../../../../powerpc-gekko/lib\libc.a(lib_a-sccl.o)
 .bss           0x00000000        0x0 c:/devkitpro/devkitppc/bin/../lib/gcc/powerpc-gekko/4.2.3/../../../../powerpc-gekko/lib\libc.a(lib_a-sccl.o)
 .data          0x00000000        0x0 c:/devkitpro/devkitppc/bin/../lib/gcc/powerpc-gekko/4.2.3/../../../../powerpc-gekko/lib\libc.a(lib_a-sf_nan.o)
 .bss           0x00000000        0x0 c:/devkitpro/devkitppc/bin/../lib/gcc/powerpc-gekko/4.2.3/../../../../powerpc-gekko/lib\libc.a(lib_a-sf_nan.o)
 .data          0x00000000        0x0 c:/devkitpro/devkitppc/bin/../lib/gcc/powerpc-gekko/4.2.3/../../../../powerpc-gekko/lib\libc.a(lib_a-siprintf.o)
 .bss           0x00000000        0x0 c:/devkitpro/devkitppc/bin/../lib/gcc/powerpc-gekko/4.2.3/../../../../powerpc-gekko/lib\libc.a(lib_a-siprintf.o)
 .data          0x00000000        0x0 c:/devkitpro/devkitppc/bin/../lib/gcc/powerpc-gekko/4.2.3/../../../../powerpc-gekko/lib\libc.a(lib_a-strchr.o)
 .bss           0x00000000        0x0 c:/devkitpro/devkitppc/bin/../lib/gcc/powerpc-gekko/4.2.3/../../../../powerpc-gekko/lib\libc.a(lib_a-strchr.o)
 .bss           0x00000000        0x0 c:/devkitpro/devkitppc/bin/../lib/gcc/powerpc-gekko/4.2.3/../../../../powerpc-gekko/lib\libc.a(lib_a-strtod.o)
 .data          0x00000000        0x0 c:/devkitpro/devkitppc/bin/../lib/gcc/powerpc-gekko/4.2.3/../../../../powerpc-gekko/lib\libc.a(lib_a-strtoll_r.o)
 .bss           0x00000000        0x0 c:/devkitpro/devkitppc/bin/../lib/gcc/powerpc-gekko/4.2.3/../../../../powerpc-gekko/lib\libc.a(lib_a-strtoll_r.o)
 .data          0x00000000        0x0 c:/devkitpro/devkitppc/bin/../lib/gcc/powerpc-gekko/4.2.3/../../../../powerpc-gekko/lib\libc.a(lib_a-strtoul.o)
 .bss           0x00000000        0x0 c:/devkitpro/devkitppc/bin/../lib/gcc/powerpc-gekko/4.2.3/../../../../powerpc-gekko/lib\libc.a(lib_a-strtoul.o)
 .data          0x00000000        0x0 c:/devkitpro/devkitppc/bin/../lib/gcc/powerpc-gekko/4.2.3/../../../../powerpc-gekko/lib\libc.a(lib_a-strtoull_r.o)
 .bss           0x00000000        0x0 c:/devkitpro/devkitppc/bin/../lib/gcc/powerpc-gekko/4.2.3/../../../../powerpc-gekko/lib\libc.a(lib_a-strtoull_r.o)
 .data          0x00000000        0x0 c:/devkitpro/devkitppc/bin/../lib/gcc/powerpc-gekko/4.2.3/../../../../powerpc-gekko/lib\libc.a(lib_a-ungetc.o)
 .bss           0x00000000        0x0 c:/devkitpro/devkitppc/bin/../lib/gcc/powerpc-gekko/4.2.3/../../../../powerpc-gekko/lib\libc.a(lib_a-ungetc.o)
 .data          0x00000000        0x0 c:/devkitpro/devkitppc/bin/../lib/gcc/powerpc-gekko/4.2.3/../../../../powerpc-gekko/lib\libc.a(lib_a-vfiprintf.o)
 .bss           0x00000000        0x0 c:/devkitpro/devkitppc/bin/../lib/gcc/powerpc-gekko/4.2.3/../../../../powerpc-gekko/lib\libc.a(lib_a-vfiprintf.o)
 .data          0x00000000        0x0 c:/devkitpro/devkitppc/bin/../lib/gcc/powerpc-gekko/4.2.3/../../../../powerpc-gekko/lib\libc.a(lib_a-gdtoa-gethex.o)
 .bss           0x00000000        0x0 c:/devkitpro/devkitppc/bin/../lib/gcc/powerpc-gekko/4.2.3/../../../../powerpc-gekko/lib\libc.a(lib_a-gdtoa-gethex.o)
 .data          0x00000000        0x0 c:/devkitpro/devkitppc/bin/../lib/gcc/powerpc-gekko/4.2.3/../../../../powerpc-gekko/lib\libc.a(lib_a-gdtoa-hexnan.o)
 .bss           0x00000000        0x0 c:/devkitpro/devkitppc/bin/../lib/gcc/powerpc-gekko/4.2.3/../../../../powerpc-gekko/lib\libc.a(lib_a-gdtoa-hexnan.o)
 .data          0x00000000        0x0 c:/devkitpro/devkitppc/bin/../lib/gcc/powerpc-gekko/4.2.3/../../../../powerpc-gekko/lib\libsysbase.a(close.o)
 .bss           0x00000000        0x0 c:/devkitpro/devkitppc/bin/../lib/gcc/powerpc-gekko/4.2.3/../../../../powerpc-gekko/lib\libsysbase.a(close.o)
 .data          0x00000000        0x0 c:/devkitpro/devkitppc/bin/../lib/gcc/powerpc-gekko/4.2.3/../../../../powerpc-gekko/lib\libsysbase.a(fstat.o)
 .bss           0x00000000        0x0 c:/devkitpro/devkitppc/bin/../lib/gcc/powerpc-gekko/4.2.3/../../../../powerpc-gekko/lib\libsysbase.a(fstat.o)
 .data          0x00000000        0x0 c:/devkitpro/devkitppc/bin/../lib/gcc/powerpc-gekko/4.2.3/../../../../powerpc-gekko/lib\libsysbase.a(isatty.o)
 .bss           0x00000000        0x0 c:/devkitpro/devkitppc/bin/../lib/gcc/powerpc-gekko/4.2.3/../../../../powerpc-gekko/lib\libsysbase.a(isatty.o)
 .data          0x00000000        0x0 c:/devkitpro/devkitppc/bin/../lib/gcc/powerpc-gekko/4.2.3/../../../../powerpc-gekko/lib\libsysbase.a(lseek.o)
 .bss           0x00000000        0x0 c:/devkitpro/devkitppc/bin/../lib/gcc/powerpc-gekko/4.2.3/../../../../powerpc-gekko/lib\libsysbase.a(lseek.o)
 .data          0x00000000        0x0 c:/devkitpro/devkitppc/bin/../lib/gcc/powerpc-gekko/4.2.3/../../../../powerpc-gekko/lib\libsysbase.a(open.o)
 .bss           0x00000000        0x0 c:/devkitpro/devkitppc/bin/../lib/gcc/powerpc-gekko/4.2.3/../../../../powerpc-gekko/lib\libsysbase.a(open.o)
 .data          0x00000000        0x0 c:/devkitpro/devkitppc/bin/../lib/gcc/powerpc-gekko/4.2.3/../../../../powerpc-gekko/lib\libsysbase.a(read.o)
 .bss           0x00000000        0x0 c:/devkitpro/devkitppc/bin/../lib/gcc/powerpc-gekko/4.2.3/../../../../powerpc-gekko/lib\libsysbase.a(read.o)
 .data          0x00000000        0x0 c:/devkitpro/devkitppc/bin/../lib/gcc/powerpc-gekko/4.2.3/../../../../powerpc-gekko/lib\libsysbase.a(sbrk.o)
 .bss           0x00000000        0x0 c:/devkitpro/devkitppc/bin/../lib/gcc/powerpc-gekko/4.2.3/../../../../powerpc-gekko/lib\libsysbase.a(sbrk.o)
 .data          0x00000000        0x0 c:/devkitpro/devkitppc/bin/../lib/gcc/powerpc-gekko/4.2.3/../../../../powerpc-gekko/lib\libsysbase.a(write.o)
 .bss           0x00000000        0x0 c:/devkitpro/devkitppc/bin/../lib/gcc/powerpc-gekko/4.2.3/../../../../powerpc-gekko/lib\libsysbase.a(write.o)
 .data          0x00000000        0x0 c:/devkitpro/devkitppc/bin/../lib/gcc/powerpc-gekko/4.2.3/../../../../powerpc-gekko/lib\libsysbase.a(flock.o)
 .bss           0x00000000        0x0 c:/devkitpro/devkitppc/bin/../lib/gcc/powerpc-gekko/4.2.3/../../../../powerpc-gekko/lib\libsysbase.a(flock.o)
 .data          0x00000000        0x0 c:/devkitpro/devkitppc/bin/../lib/gcc/powerpc-gekko/4.2.3/../../../../powerpc-gekko/lib\libsysbase.a(handle_manager.o)
 .data          0x00000000        0x0 c:/devkitpro/devkitppc/bin/../lib/gcc/powerpc-gekko/4.2.3\libgcc.a(_umoddi3.o)
 .bss           0x00000000        0x0 c:/devkitpro/devkitppc/bin/../lib/gcc/powerpc-gekko/4.2.3\libgcc.a(_umoddi3.o)
 .text          0x00000000        0x0 c:/devkitpro/devkitppc/bin/../lib/gcc/powerpc-gekko/4.2.3/crtsavres.o
 .data          0x00000000        0x0 c:/devkitpro/devkitppc/bin/../lib/gcc/powerpc-gekko/4.2.3/crtsavres.o
 .bss           0x00000000        0x0 c:/devkitpro/devkitppc/bin/../lib/gcc/powerpc-gekko/4.2.3/crtsavres.o
 .data          0x00000000        0x0 c:/devkitpro/devkitppc/bin/../lib/gcc/powerpc-gekko/4.2.3/crtend.o
 .bss           0x00000000        0x0 c:/devkitpro/devkitppc/bin/../lib/gcc/powerpc-gekko/4.2.3/crtend.o
 .text          0x00000000        0x0 c:/devkitpro/devkitppc/bin/../lib/gcc/powerpc-gekko/4.2.3/ecrtn.o
 .data          0x00000000        0x0 c:/devkitpro/devkitppc/bin/../lib/gcc/powerpc-gekko/4.2.3/ecrtn.o
 .bss           0x00000000        0x0 c:/devkitpro/devkitppc/bin/../lib/gcc/powerpc-gekko/4.2.3/ecrtn.o
 .got           0x00000000        0x0 c:/devkitpro/devkitppc/bin/../lib/gcc/powerpc-gekko/4.2.3/ecrtn.o
 .got1          0x00000000        0x0 c:/devkitpro/devkitppc/bin/../lib/gcc/powerpc-gekko/4.2.3/ecrtn.o
 .got2          0x00000000        0x0 c:/devkitpro/devkitppc/bin/../lib/gcc/powerpc-gekko/4.2.3/ecrtn.o
 .fixup         0x00000000        0x0 c:/devkitpro/devkitppc/bin/../lib/gcc/powerpc-gekko/4.2.3/ecrtn.o
 .sdata         0x00000000        0x0 c:/devkitpro/devkitppc/bin/../lib/gcc/powerpc-gekko/4.2.3/ecrtn.o
 .sbss          0x00000000        0x0 c:/devkitpro/devkitppc/bin/../lib/gcc/powerpc-gekko/4.2.3/ecrtn.o
 .sdata2        0x00000000        0x0 c:/devkitpro/devkitppc/bin/../lib/gcc/powerpc-gekko/4.2.3/ecrtn.o
 .sbss2         0x00000000        0x0 c:/devkitpro/devkitppc/bin/../lib/gcc/powerpc-gekko/4.2.3/ecrtn.o
 .gcc_except_table
                0x00000000        0x0 c:/devkitpro/devkitppc/bin/../lib/gcc/powerpc-gekko/4.2.3/ecrtn.o

Memory Configuration

Name             Origin             Length             Attributes
*default*        0x00000000         0xffffffff

Linker script and memory map

                0x80003000                . = 0x80003000

.header         0x80003000       0xe4
                0x80003000                file_start = .
                0x80003000        0x4 LONG 0x100 text_file_start
                0x80003004        0x4 LONG 0x0
                0x80003008        0x4 LONG 0x0
                0x8000300c        0x4 LONG 0x0
                0x80003010        0x4 LONG 0x0
                0x80003014        0x4 LONG 0x0
                0x80003018        0x4 LONG 0x0
                0x8000301c        0x4 LONG 0x874a0 data_file_start
                0x80003020        0x4 LONG 0x0
                0x80003024        0x4 LONG 0x0
                0x80003028        0x4 LONG 0x0
                0x8000302c        0x4 LONG 0x0
                0x80003030        0x4 LONG 0x0
                0x80003034        0x4 LONG 0x0
                0x80003038        0x4 LONG 0x0
                0x8000303c        0x4 LONG 0x0
                0x80003040        0x4 LONG 0x0
                0x80003044        0x4 LONG 0x0
                0x80003048        0x4 LONG 0x80003100 text_mem_start
                0x8000304c        0x4 LONG 0x0
                0x80003050        0x4 LONG 0x0
                0x80003054        0x4 LONG 0x0
                0x80003058        0x4 LONG 0x0
                0x8000305c        0x4 LONG 0x0
                0x80003060        0x4 LONG 0x0
                0x80003064        0x4 LONG 0x8008a4a0 data_mem_start
                0x80003068        0x4 LONG 0x0
                0x8000306c        0x4 LONG 0x0
                0x80003070        0x4 LONG 0x0
                0x80003074        0x4 LONG 0x0
                0x80003078        0x4 LONG 0x0
                0x8000307c        0x4 LONG 0x0
                0x80003080        0x4 LONG 0x0
                0x80003084        0x4 LONG 0x0
                0x80003088        0x4 LONG 0x0
                0x8000308c        0x4 LONG 0x0
                0x80003090        0x4 LONG 0x873a0 text_mem_size
                0x80003094        0x4 LONG 0x0
                0x80003098        0x4 LONG 0x0
                0x8000309c        0x4 LONG 0x0
                0x800030a0        0x4 LONG 0x0
                0x800030a4        0x4 LONG 0x0
                0x800030a8        0x4 LONG 0x0
                0x800030ac        0x4 LONG 0x399280 data_mem_size
                0x800030b0        0x4 LONG 0x0
                0x800030b4        0x4 LONG 0x0
                0x800030b8        0x4 LONG 0x0
                0x800030bc        0x4 LONG 0x0
                0x800030c0        0x4 LONG 0x0
                0x800030c4        0x4 LONG 0x0
                0x800030c8        0x4 LONG 0x0
                0x800030cc        0x4 LONG 0x0
                0x800030d0        0x4 LONG 0x0
                0x800030d4        0x4 LONG 0x0
                0x800030d8        0x4 LONG 0x80423720 bss_mem_start
                0x800030dc        0x4 LONG 0x2bf00 bss_mem_size
                0x800030e0        0x4 LONG 0x80003100 ABSOLUTE (_start)
                0x80003100                . = (file_start + 0x100)
                0x80003100                text_mem_start = .

.init           0x80003100      0x208
 *crt0.o(*.init)
 .init          0x80003100      0x1e4 c:/devkitPro/libogc/lib/cube\libogc.a(ogc_crt0.o)
                0x8000329c                _memset
                0x80003100                _start
                0x800032cc                video_line
 *(.init)
 .init          0x800032e4        0xc c:/devkitpro/devkitppc/bin/../lib/gcc/powerpc-gekko/4.2.3/ecrti.o
                0x800032e4                __init
 .init          0x800032f0        0x4 c:/devkitpro/devkitppc/bin/../lib/gcc/powerpc-gekko/4.2.3/crtbegin.o
 .init          0x800032f4        0x4 c:/devkitpro/devkitppc/bin/../lib/gcc/powerpc-gekko/4.2.3/crtend.o
 .init          0x800032f8       0x10 c:/devkitpro/devkitppc/bin/../lib/gcc/powerpc-gekko/4.2.3/ecrtn.o

.plt
 *(.plt)

.interp
 *(.interp)

.hash
 *(.hash)

.dynsym
 *(.dynsym)

.dynstr
 *(.dynstr)

.gnu.version
 *(.gnu.version)

.gnu.version_d
 *(.gnu.version_d)

.gnu.version_r
 *(.gnu.version_r)

.rel.init
 *(.rel.init)

.rela.init      0x80003308        0x0
 *(.rela.init)
 .rela.init     0x00000000        0x0 c:/devkitpro/devkitppc/bin/../lib/gcc/powerpc-gekko/4.2.3/crtbegin.o

.rel.text
 *(.rel.text .rel.text.* .rel.gnu.linkonce.t.*)

.rela.text      0x80003308        0x0
 *(.rela.text .rela.text.* .rela.gnu.linkonce.t.*)
 .rela.text     0x00000000        0x0 c:/devkitpro/devkitppc/bin/../lib/gcc/powerpc-gekko/4.2.3/crtbegin.o
 .rela.text.DrawLineFast
                0x00000000        0x0 c:/devkitpro/devkitppc/bin/../lib/gcc/powerpc-gekko/4.2.3/crtbegin.o
 .rela.text.ShowScreen
                0x00000000        0x0 c:/devkitpro/devkitppc/bin/../lib/gcc/powerpc-gekko/4.2.3/crtbegin.o
 .rela.text.ClearScreen
                0x00000000        0x0 c:/devkitpro/devkitppc/bin/../lib/gcc/powerpc-gekko/4.2.3/crtbegin.o
 .rela.text.DrawText
                0x00000000        0x0 c:/devkitpro/devkitppc/bin/../lib/gcc/powerpc-gekko/4.2.3/crtbegin.o
 .rela.text.WaitPrompt
                0x00000000        0x0 c:/devkitpro/devkitppc/bin/../lib/gcc/powerpc-gekko/4.2.3/crtbegin.o
 .rela.text.SelectMode
                0x00000000        0x0 c:/devkitpro/devkitppc/bin/../lib/gcc/powerpc-gekko/4.2.3/crtbegin.o
 .rela.text.ShowAction
                0x00000000        0x0 c:/devkitpro/devkitppc/bin/../lib/gcc/powerpc-gekko/4.2.3/crtbegin.o
 .rela.text.setfontsize
                0x00000000        0x0 c:/devkitpro/devkitppc/bin/../lib/gcc/powerpc-gekko/4.2.3/crtbegin.o
 .rela.text.ShowSelector
                0x00000000        0x0 c:/devkitpro/devkitppc/bin/../lib/gcc/powerpc-gekko/4.2.3/crtbegin.o
 .rela.text.FT_Init
                0x00000000        0x0 c:/devkitpro/devkitppc/bin/../lib/gcc/powerpc-gekko/4.2.3/crtbegin.o
 .rela.text.readpad
                0x00000000        0x0 c:/devkitpro/devkitppc/bin/../lib/gcc/powerpc-gekko/4.2.3/crtbegin.o
 .rela.text.main
                0x00000000        0x0 c:/devkitpro/devkitppc/bin/../lib/gcc/powerpc-gekko/4.2.3/crtbegin.o
 .rela.text.MP3Player_PlayBuffer
                0x00000000        0x0 c:/devkitpro/devkitppc/bin/../lib/gcc/powerpc-gekko/4.2.3/crtbegin.o
 .rela.text.mad_layer_III
                0x00000000        0x0 c:/devkitpro/devkitppc/bin/../lib/gcc/powerpc-gekko/4.2.3/crtbegin.o
 .rela.text.__console_init_ex
                0x00000000        0x0 c:/devkitpro/devkitppc/bin/../lib/gcc/powerpc-gekko/4.2.3/crtbegin.o
 .rela.text.__console_init
                0x00000000        0x0 c:/devkitpro/devkitppc/bin/../lib/gcc/powerpc-gekko/4.2.3/crtbegin.o
 .rela.text.__lwp_thread_context
                0x00000000        0x0 c:/devkitpro/devkitppc/bin/../lib/gcc/powerpc-gekko/4.2.3/crtbegin.o
 .rela.text.__lwp_thread_exists
                0x00000000        0x0 c:/devkitpro/devkitppc/bin/../lib/gcc/powerpc-gekko/4.2.3/crtbegin.o
 .rela.text.__lwp_thread_isalive
                0x00000000        0x0 c:/devkitpro/devkitppc/bin/../lib/gcc/powerpc-gekko/4.2.3/crtbegin.o
 .rela.text.__lwp_sysinit
                0x00000000        0x0 c:/devkitpro/devkitppc/bin/../lib/gcc/powerpc-gekko/4.2.3/crtbegin.o
 .rela.text.LWP_ThreadSignal
                0x00000000        0x0 c:/devkitpro/devkitppc/bin/../lib/gcc/powerpc-gekko/4.2.3/crtbegin.o
 .rela.text.LWP_ThreadBroadcast
                0x00000000        0x0 c:/devkitpro/devkitppc/bin/../lib/gcc/powerpc-gekko/4.2.3/crtbegin.o
 .rela.text.LWP_ThreadSleep
                0x00000000        0x0 c:/devkitpro/devkitppc/bin/../lib/gcc/powerpc-gekko/4.2.3/crtbegin.o
 .rela.text.LWP_CloseQueue
                0x00000000        0x0 c:/devkitpro/devkitppc/bin/../lib/gcc/powerpc-gekko/4.2.3/crtbegin.o
 .rela.text.LWP_InitQueue
                0x00000000        0x0 c:/devkitpro/devkitppc/bin/../lib/gcc/powerpc-gekko/4.2.3/crtbegin.o
 .rela.text.LWP_JoinThread
                0x00000000        0x0 c:/devkitpro/devkitppc/bin/../lib/gcc/powerpc-gekko/4.2.3/crtbegin.o
 .rela.text.LWP_ThreadIsSuspended
                0x00000000        0x0 c:/devkitpro/devkitppc/bin/../lib/gcc/powerpc-gekko/4.2.3/crtbegin.o
 .rela.text.LWP_SetThreadPriority
                0x00000000        0x0 c:/devkitpro/devkitppc/bin/../lib/gcc/powerpc-gekko/4.2.3/crtbegin.o
 .rela.text.LWP_ResumeThread
                0x00000000        0x0 c:/devkitpro/devkitppc/bin/../lib/gcc/powerpc-gekko/4.2.3/crtbegin.o
 .rela.text.LWP_SuspendThread
                0x00000000        0x0 c:/devkitpro/devkitppc/bin/../lib/gcc/powerpc-gekko/4.2.3/crtbegin.o
 .rela.text.LWP_CreateThread
                0x00000000        0x0 c:/devkitpro/devkitppc/bin/../lib/gcc/powerpc-gekko/4.2.3/crtbegin.o
 .rela.text.__lwp_objmgr_initinfo
                0x00000000        0x0 c:/devkitpro/devkitppc/bin/../lib/gcc/powerpc-gekko/4.2.3/crtbegin.o
 .rela.text.__sram_sync
                0x00000000        0x0 c:/devkitpro/devkitppc/bin/../lib/gcc/powerpc-gekko/4.2.3/crtbegin.o
 .rela.text.__locksram
                0x00000000        0x0 c:/devkitpro/devkitppc/bin/../lib/gcc/powerpc-gekko/4.2.3/crtbegin.o
 .rela.text.__sys_alarmhandler
                0x00000000        0x0 c:/devkitpro/devkitppc/bin/../lib/gcc/powerpc-gekko/4.2.3/crtbegin.o
 .rela.text.__sram_init
                0x00000000        0x0 c:/devkitpro/devkitppc/bin/../lib/gcc/powerpc-gekko/4.2.3/crtbegin.o
 .rela.text.SYS_Init
                0x00000000        0x0 c:/devkitpro/devkitppc/bin/../lib/gcc/powerpc-gekko/4.2.3/crtbegin.o
 .rela.text.__unlocksram
                0x00000000        0x0 c:/devkitpro/devkitppc/bin/../lib/gcc/powerpc-gekko/4.2.3/crtbegin.o
 .rela.text.__sram_writecallback
                0x00000000        0x0 c:/devkitpro/devkitppc/bin/../lib/gcc/powerpc-gekko/4.2.3/crtbegin.o
 .rela.text.SYS_CancelAlarm
                0x00000000        0x0 c:/devkitpro/devkitppc/bin/../lib/gcc/powerpc-gekko/4.2.3/crtbegin.o
 .rela.text.SYS_RemoveAlarm
                0x00000000        0x0 c:/devkitpro/devkitppc/bin/../lib/gcc/powerpc-gekko/4.2.3/crtbegin.o
 .rela.text.SYS_SetPeriodicAlarm
                0x00000000        0x0 c:/devkitpro/devkitppc/bin/../lib/gcc/powerpc-gekko/4.2.3/crtbegin.o
 .rela.text.SYS_SetAlarm
                0x00000000        0x0 c:/devkitpro/devkitppc/bin/../lib/gcc/powerpc-gekko/4.2.3/crtbegin.o
 .rela.text.__lwp_cond_init
                0x00000000        0x0 c:/devkitpro/devkitppc/bin/../lib/gcc/powerpc-gekko/4.2.3/crtbegin.o
 .rela.text.LWP_CondDestroy
                0x00000000        0x0 c:/devkitpro/devkitppc/bin/../lib/gcc/powerpc-gekko/4.2.3/crtbegin.o
 .rela.text.LWP_CondInit
                0x00000000        0x0 c:/devkitpro/devkitppc/bin/../lib/gcc/powerpc-gekko/4.2.3/crtbegin.o
 .rela.text.__lwp_cond_signalsupp
                0x00000000        0x0 c:/devkitpro/devkitppc/bin/../lib/gcc/powerpc-gekko/4.2.3/crtbegin.o
 .rela.text.__lwp_cond_waitsupp
                0x00000000        0x0 c:/devkitpro/devkitppc/bin/../lib/gcc/powerpc-gekko/4.2.3/crtbegin.o
 .rela.text.c_decrementer_handler
                0x00000000        0x0 c:/devkitpro/devkitppc/bin/../lib/gcc/powerpc-gekko/4.2.3/crtbegin.o
 .rela.text.__lwp_mqbox_init
                0x00000000        0x0 c:/devkitpro/devkitppc/bin/../lib/gcc/powerpc-gekko/4.2.3/crtbegin.o
 .rela.text.MQ_Close
                0x00000000        0x0 c:/devkitpro/devkitppc/bin/../lib/gcc/powerpc-gekko/4.2.3/crtbegin.o
 .rela.text.MQ_Init
                0x00000000        0x0 c:/devkitpro/devkitppc/bin/../lib/gcc/powerpc-gekko/4.2.3/crtbegin.o
 .rela.text.MQ_Jam
                0x00000000        0x0 c:/devkitpro/devkitppc/bin/../lib/gcc/powerpc-gekko/4.2.3/crtbegin.o
 .rela.text.MQ_Receive
                0x00000000        0x0 c:/devkitpro/devkitppc/bin/../lib/gcc/powerpc-gekko/4.2.3/crtbegin.o
 .rela.text.MQ_Send
                0x00000000        0x0 c:/devkitpro/devkitppc/bin/../lib/gcc/powerpc-gekko/4.2.3/crtbegin.o
 .rela.text.nanosleep
                0x00000000        0x0 c:/devkitpro/devkitppc/bin/../lib/gcc/powerpc-gekko/4.2.3/crtbegin.o
 .rela.text.__libc_init
                0x00000000        0x0 c:/devkitpro/devkitppc/bin/../lib/gcc/powerpc-gekko/4.2.3/crtbegin.o
 .rela.text.__libc_wrapup
                0x00000000        0x0 c:/devkitpro/devkitppc/bin/../lib/gcc/powerpc-gekko/4.2.3/crtbegin.o
 .rela.text.__libc_delete_hook
                0x00000000        0x0 c:/devkitpro/devkitppc/bin/../lib/gcc/powerpc-gekko/4.2.3/crtbegin.o
 .rela.text.__CheckARGV
                0x00000000        0x0 c:/devkitpro/devkitppc/bin/../lib/gcc/powerpc-gekko/4.2.3/crtbegin.o
 .rela.text.__lwp_priority_init
                0x00000000        0x0 c:/devkitpro/devkitppc/bin/../lib/gcc/powerpc-gekko/4.2.3/crtbegin.o
 .rela.text.__lwp_threadqueue_extractpriority
                0x00000000        0x0 c:/devkitpro/devkitppc/bin/../lib/gcc/powerpc-gekko/4.2.3/crtbegin.o
 .rela.text.__lwp_threadqueue_extractfifo
                0x00000000        0x0 c:/devkitpro/devkitppc/bin/../lib/gcc/powerpc-gekko/4.2.3/crtbegin.o
 .rela.text.__lwp_threadqueue_dequeuepriority
                0x00000000        0x0 c:/devkitpro/devkitppc/bin/../lib/gcc/powerpc-gekko/4.2.3/crtbegin.o
 .rela.text.__lwp_threadqueue_enqueuepriority
                0x00000000        0x0 c:/devkitpro/devkitppc/bin/../lib/gcc/powerpc-gekko/4.2.3/crtbegin.o
 .rela.text.__lwp_threadqueue_dequeuefifo
                0x00000000        0x0 c:/devkitpro/devkitppc/bin/../lib/gcc/powerpc-gekko/4.2.3/crtbegin.o
 .rela.text.__lwp_threadqueue_enqueuefifo
                0x00000000        0x0 c:/devkitpro/devkitppc/bin/../lib/gcc/powerpc-gekko/4.2.3/crtbegin.o
 .rela.text.__lwp_threadqueue_enqueue
                0x00000000        0x0 c:/devkitpro/devkitppc/bin/../lib/gcc/powerpc-gekko/4.2.3/crtbegin.o
 .rela.text.__lwp_rotate_readyqueue
                0x00000000        0x0 c:/devkitpro/devkitppc/bin/../lib/gcc/powerpc-gekko/4.2.3/crtbegin.o
 .rela.text.__lwp_thread_setstate
                0x00000000        0x0 c:/devkitpro/devkitppc/bin/../lib/gcc/powerpc-gekko/4.2.3/crtbegin.o
 .rela.text.__lwp_thread_setpriority
                0x00000000        0x0 c:/devkitpro/devkitppc/bin/../lib/gcc/powerpc-gekko/4.2.3/crtbegin.o
 .rela.text.__lwp_thread_ready
                0x00000000        0x0 c:/devkitpro/devkitppc/bin/../lib/gcc/powerpc-gekko/4.2.3/crtbegin.o
 .rela.text.__lwp_thread_close
                0x00000000        0x0 c:/devkitpro/devkitppc/bin/../lib/gcc/powerpc-gekko/4.2.3/crtbegin.o
 .rela.text.__lwp_thread_stopmultitasking
                0x00000000        0x0 c:/devkitpro/devkitppc/bin/../lib/gcc/powerpc-gekko/4.2.3/crtbegin.o
 .rela.text.__lwp_thread_startmultitasking
                0x00000000        0x0 c:/devkitpro/devkitppc/bin/../lib/gcc/powerpc-gekko/4.2.3/crtbegin.o
 .rela.text.__lwp_thread_closeall
                0x00000000        0x0 c:/devkitpro/devkitppc/bin/../lib/gcc/powerpc-gekko/4.2.3/crtbegin.o
 .rela.text.__lwp_thread_changepriority
                0x00000000        0x0 c:/devkitpro/devkitppc/bin/../lib/gcc/powerpc-gekko/4.2.3/crtbegin.o
 .rela.text.__lwp_thread_coreinit
                0x00000000        0x0 c:/devkitpro/devkitppc/bin/../lib/gcc/powerpc-gekko/4.2.3/crtbegin.o
 .rela.text.__lwp_thread_suspend
                0x00000000        0x0 c:/devkitpro/devkitppc/bin/../lib/gcc/powerpc-gekko/4.2.3/crtbegin.o
 .rela.text.__lwpmq_close
                0x00000000        0x0 c:/devkitpro/devkitppc/bin/../lib/gcc/powerpc-gekko/4.2.3/crtbegin.o
 .rela.text.__lwpmq_initialize
                0x00000000        0x0 c:/devkitpro/devkitppc/bin/../lib/gcc/powerpc-gekko/4.2.3/crtbegin.o
 .rela.text.__lwp_stack_free
                0x00000000        0x0 c:/devkitpro/devkitppc/bin/../lib/gcc/powerpc-gekko/4.2.3/crtbegin.o
 .rela.text.__lwp_stack_allocate
                0x00000000        0x0 c:/devkitpro/devkitppc/bin/../lib/gcc/powerpc-gekko/4.2.3/crtbegin.o
 .rela.text.__lwp_watchdog_init
                0x00000000        0x0 c:/devkitpro/devkitppc/bin/../lib/gcc/powerpc-gekko/4.2.3/crtbegin.o
 .rela.text.__lwp_wd_tickle
                0x00000000        0x0 c:/devkitpro/devkitppc/bin/../lib/gcc/powerpc-gekko/4.2.3/crtbegin.o
 .rela.text.__lwp_wkspace_init
                0x00000000        0x0 c:/devkitpro/devkitppc/bin/../lib/gcc/powerpc-gekko/4.2.3/crtbegin.o
 .rela.text.__lwp_wkspace_heapused
                0x00000000        0x0 c:/devkitpro/devkitppc/bin/../lib/gcc/powerpc-gekko/4.2.3/crtbegin.o
 .rela.text.__lwp_wkspace_heapfree
                0x00000000        0x0 c:/devkitpro/devkitppc/bin/../lib/gcc/powerpc-gekko/4.2.3/crtbegin.o
 .rela.text.__exception_sethandler
                0x00000000        0x0 c:/devkitpro/devkitppc/bin/../lib/gcc/powerpc-gekko/4.2.3/crtbegin.o
 .rela.text.__exception_init
                0x00000000        0x0 c:/devkitpro/devkitppc/bin/../lib/gcc/powerpc-gekko/4.2.3/crtbegin.o
 .rela.text.__systemcall_init
                0x00000000        0x0 c:/devkitpro/devkitppc/bin/../lib/gcc/powerpc-gekko/4.2.3/crtbegin.o
 .rela.text.__irq_init
                0x00000000        0x0 c:/devkitpro/devkitppc/bin/../lib/gcc/powerpc-gekko/4.2.3/crtbegin.o
 .rela.text.__lwp_sema_init
                0x00000000        0x0 c:/devkitpro/devkitppc/bin/../lib/gcc/powerpc-gekko/4.2.3/crtbegin.o
 .rela.text.LWP_SemInit
                0x00000000        0x0 c:/devkitpro/devkitppc/bin/../lib/gcc/powerpc-gekko/4.2.3/crtbegin.o
 .rela.text.LWP_SemDestroy
                0x00000000        0x0 c:/devkitpro/devkitppc/bin/../lib/gcc/powerpc-gekko/4.2.3/crtbegin.o
 .rela.text.LWP_SemPost
                0x00000000        0x0 c:/devkitpro/devkitppc/bin/../lib/gcc/powerpc-gekko/4.2.3/crtbegin.o
 .rela.text.LWP_SemWait
                0x00000000        0x0 c:/devkitpro/devkitppc/bin/../lib/gcc/powerpc-gekko/4.2.3/crtbegin.o
 .rela.text.__lwp_mutex_init
                0x00000000        0x0 c:/devkitpro/devkitppc/bin/../lib/gcc/powerpc-gekko/4.2.3/crtbegin.o
 .rela.text.LWP_MutexDestroy
                0x00000000        0x0 c:/devkitpro/devkitppc/bin/../lib/gcc/powerpc-gekko/4.2.3/crtbegin.o
 .rela.text.LWP_MutexUnlock
                0x00000000        0x0 c:/devkitpro/devkitppc/bin/../lib/gcc/powerpc-gekko/4.2.3/crtbegin.o
 .rela.text.__lwp_mutex_locksupp
                0x00000000        0x0 c:/devkitpro/devkitppc/bin/../lib/gcc/powerpc-gekko/4.2.3/crtbegin.o
 .rela.text.LWP_MutexInit
                0x00000000        0x0 c:/devkitpro/devkitppc/bin/../lib/gcc/powerpc-gekko/4.2.3/crtbegin.o
 .rela.text.kprintf
                0x00000000        0x0 c:/devkitpro/devkitppc/bin/../lib/gcc/powerpc-gekko/4.2.3/crtbegin.o

.rel.fini
 *(.rel.fini)

.rela.fini
 *(.rela.fini)

.rel.rodata
 *(.rel.rodata .rel.rodata.* .rel.gnu.linkonce.r.*)

.rela.rodata    0x80003308        0x0
 *(.rela.rodata .rela.rodata.* .rela.gnu.linkonce.r.*)
 .rela.rodata.cst4
                0x00000000        0x0 c:/devkitpro/devkitppc/bin/../lib/gcc/powerpc-gekko/4.2.3/crtbegin.o
 .rela.rodata.decoder_table
                0x00000000        0x0 c:/devkitpro/devkitppc/bin/../lib/gcc/powerpc-gekko/4.2.3/crtbegin.o
 .rela.rodata   0x00000000        0x0 c:/devkitpro/devkitppc/bin/../lib/gcc/powerpc-gekko/4.2.3/crtbegin.o

.rel.data
 *(.rel.data .rel.data.* .rel.gnu.linkonce.d.*)

.rela.data
 *(.rela.data .rela.data.* .rela.gnu.linkonce.d.*)

.rel.tdata
 *(.rel.tdata .rel.tdata.* .rel.gnu.linkonce.td.*)

.rela.tdata
 *(.rela.tdata .rela.tdata.* .rela.gnu.linkonce.td.*)

.rel.tbss
 *(.rel.tbss .rel.tbss.* .rel.gnu.linkonce.tb.*)

.rela.tbss
 *(.rela.tbss .rela.tbss.* .rela.gnu.linkonce.tb.*)

.rel.ctors
 *(.rel.ctors)

.rela.ctors
 *(.rela.ctors)

.rel.dtors
 *(.rel.dtors)

.rela.dtors
 *(.rela.dtors)

.rel.got
 *(.rel.got)

.rela.got
 *(.rela.got)

.rela.got1
 *(.rela.got1)

.rela.got2      0x80003308        0x0
 *(.rela.got2)
 .rela.got2     0x00000000        0x0 c:/devkitpro/devkitppc/bin/../lib/gcc/powerpc-gekko/4.2.3/crtbegin.o

.rel.sdata
 *(.rel.sdata .rel.sdata.* .rel.gnu.linkonce.s.*)

.rela.sdata
 *(.rela.sdata .rela.sdata.* .rela.gnu.linkonce.s.*)

.rel.sbss
 *(.rel.sbss .rel.sbss.* .rel.gnu.linkonce.sb.*)

.rela.sbss
 *(.rela.sbss .rela.sbss.* .rel.gnu.linkonce.sb.*)

.rel.sdata2
 *(.rel.sdata2 .rel.sdata2.* .rel.gnu.linkonce.s2.*)

.rela.sdata2    0x80003308        0x0
 *(.rela.sdata2 .rela.sdata2.* .rela.gnu.linkonce.s2.*)
 .rela.sdata2.__sys_inIPL
                0x00000000        0x0 c:/devkitpro/devkitppc/bin/../lib/gcc/powerpc-gekko/4.2.3/crtbegin.o

.rel.sbss2
 *(.rel.sbss2 .rel.sbss2.* .rel.gnu.linkonce.sb2.*)

.rela.sbss2
 *(.rela.sbss2 .rela.sbss2.* .rela.gnu.linkonce.sb2.*)

.rel.bss
 *(.rel.bss .rel.bss.* .rel.gnu.linkonce.b.*)

.rela.bss
 *(.rela.bss .rela.bss.* .rela.gnu.linkonce.b.*)

.rel.plt
 *(.rel.plt)

.rela.plt
 *(.rela.plt)

.text           0x80003320    0x87160
 *(.text)
 .text          0x80003320      0x140 c:/devkitpro/devkitppc/bin/../lib/gcc/powerpc-gekko/4.2.3/crtbegin.o
 .text          0x80003460       0x48 c:/devkitpro/devkitppc/bin/../lib/gcc/powerpc-gekko/4.2.3/../../../../powerpc-gekko/lib/crtmain.o
                0x80003464                __crtmain
 .text          0x800034a8       0x24 c:/devkitpro/devkitppc/bin/../lib/gcc/powerpc-gekko/4.2.3/../../../../powerpc-gekko/lib\libm.a(lib_a-s_sin.o)
                0x800034a8                sin
 .text          0x800034cc      0x2c4 c:/devkitpro/devkitppc/bin/../lib/gcc/powerpc-gekko/4.2.3/../../../../powerpc-gekko/lib\libm.a(lib_a-s_sine.o)
                0x800034cc                sine
 .text          0x80003790       0xb4 c:/devkitpro/devkitppc/bin/../lib/gcc/powerpc-gekko/4.2.3/../../../../powerpc-gekko/lib\libm.a(lib_a-s_fabs.o)
                0x80003790                fabs
 .text          0x80003844       0x50 c:/devkitpro/devkitppc/bin/../lib/gcc/powerpc-gekko/4.2.3/../../../../powerpc-gekko/lib\libm.a(lib_a-s_numtest.o)
                0x80003844                numtest
 .text          0x80003894      0x4d8 c:/devkitPro/libogc/lib/cube\libogc.a(cache_asm.o)
                0x80003b70                L2Disable
                0x800038f8                DCBlockZero
                0x800039b0                DCFlushRangeNoSync
                0x80003b04                ICBlockInvalidate
                0x80003894                DCFlashInvalidate
                0x80003900                DCBlockStore
                0x80003a10                DCZeroRange
                0x80003d24                LCLoadBlocks
                0x800038f0                DCTouchLoad
                0x80003ce4                LCAllocTags
                0x80003acc                ICDisable
                0x80003ab8                ICEnable
                0x80003b88                L2GlobalInvalidate
                0x80003d48                LCStoreBlocks
                0x80003aa8                ICFlashInvalidate
                0x80003a40                DCTouchRange
                0x800039e0                DCStoreRangeNoSync
                0x80003ae0                ICFreeze
                0x800038b8                DCDisable
                0x80003908                DCBlockFlush
                0x800038a4                DCEnable
                0x80003b5c                L2Enable
                0x80003be0                __LCEnable
                0x80003918                DCInvalidateRange
                0x80003cd0                LCAllocOneTag
                0x800038e0                DCUnfreeze
                0x80003a70                ICInvalidateRange
                0x80003948                DCFlushRange
                0x80003b0c                ICSync
                0x80003910                DCBlockInvalidate
                0x800038cc                DCFreeze
                0x80003b14                L2Init
                0x80003af4                ICUnfreeze
                0x8000397c                DCStoreRange
                0x80003ca8                LCDisable
 .text          0x80003d6c      0x304 c:/devkitPro/libogc/lib/cube\libogc.a(system_asm.o)
                0x80003e04                __configMEM1_48Mb
                0x80003fd0                __reset
                0x80003d6c                __realmode
                0x80003ebc                __CacheInit
                0x80003f20                __SystemInit
                0x80003d84                __configMEM1_24Mb
                0x80003e84                __PSInit
                0x80003f9c                __flush_cache
                0x80004040                SYS_SwitchFiber
 *fill*         0x80004070       0x10 00000000
 .text          0x80004080      0x4e8 c:/devkitPro/libogc/lib/cube\libogc.a(lwp_handler.o)
                0x800041c0                _cpu_context_restore_fp
                0x80004480                _cpu_context_save
                0x80004080                _cpu_context_save_fp
                0x80004300                _cpu_context_switch
                0x80004500                _cpu_context_restore
 .text          0x80004568      0x1b0 c:/devkitPro/libogc/lib/cube\libogc.a(irq_handler.o)
                0x80004568                irq_exceptionhandler
 .text          0x80004718      0x118 c:/devkitPro/libogc/lib/cube\libogc.a(video_asm.o)
                0x80004718                __VIClearFramebuffer
 .text          0x80004830      0x1b0 c:/devkitPro/libogc/lib/cube\libogc.a(decrementer_handler.o)
                0x80004830                dec_exceptionhandler
 .text          0x800049e0      0x34c c:/devkitPro/libogc/lib/cube\libogc.a(exception_handler.o)
                0x800049e0                exceptionhandler_start
                0x80004a94                default_exceptionhandler
                0x80004d28                systemcallhandler_end
                0x80004d0c                systemcallhandler_start
                0x80004a90                exceptionhandler_end
                0x80004a5c                exceptionhandler_patch
                0x80004bd4                fpu_exceptionhandler
 .text          0x80004d2c      0x114 c:/devkitpro/devkitppc/bin/../lib/gcc/powerpc-gekko/4.2.3/../../../../powerpc-gekko/lib\libfreetype.a(ftinit.o)
                0x80004d84                FT_Init_FreeType
                0x80004e00                FT_Done_FreeType
                0x80004d2c                FT_Add_Default_Modules
 .text          0x80004e40     0x952c c:/devkitpro/devkitppc/bin/../lib/gcc/powerpc-gekko/4.2.3/../../../../powerpc-gekko/lib\libfreetype.a(ftbase.o)
                0x80009174                FT_Done_GlyphSlot
                0x80005464                FT_QAlloc
                0x8000549c                FT_Realloc
                0x8000b574                FT_Request_Metrics
                0x800067d8                FT_DivFix
                0x80008b78                ft_validator_init
                0x800059b8                FT_Stream_ReleaseFrame
                0x800055a0                FT_Stream_Close
                0x8000d604                ft_module_get_service
                0x80005abc                FT_Stream_GetShort
                0x80009f14                FT_Raccess_Guess
                0x800068bc                FT_SqrtFixed
                0x8000db14                FT_Get_Sfnt_Name
                0x8000d8ac                FT_Set_Debug_Hook
                0x80004e40                ft_mem_qalloc
                0x80005334                FT_List_Finalize
                0x8000cab8                FT_Load_Glyph
                0x80006f98                FT_Vector_Polarize
                0x80004ee8                ft_mem_alloc
                0x8000a1b0                FT_Done_Face
                0x80004f8c                ft_mem_free
                0x80007a84                FT_Lookup_Renderer
                0x8000566c                FT_Stream_ReadAt
                0x8000af50                FT_New_Memory_Face
                0x8000ca90                FT_Render_Glyph
                0x8000b360                ft_synthesize_vertical_metrics
                0x80008650                FT_GlyphLoader_CheckPoints
                0x800088d4                FT_GlyphLoader_Prepare
                0x8000bb5c                FT_Get_Kerning
                0x800092fc                FT_Get_Char_Index
                0x800050c8                ft_mem_realloc
                0x800079c0                FT_Outline_Reverse
                0x80007974                FT_Outline_Translate
                0x8000540c                ft_highpow2
                0x80005a1c                FT_Stream_ExitFrame
                0x8000b0fc                FT_Done_Size
                0x80008bb4                ft_validator_error
                0x80006550                FT_MulDiv
                0x8000880c                FT_GlyphLoader_CheckSubGlyphs
                0x8000bdec                FT_Set_Charmap
                0x80005b7c                FT_Stream_GetLong
                0x80005730                FT_Stream_Read
                0x8000da4c                FT_Get_SubGlyph_Info
                0x80006420                FT_RoundFix
                0x800051cc                FT_List_Add
                0x800055e8                FT_Stream_Seek
                0x80005744                FT_Stream_TryRead
                0x8000a050                FT_New_Size
                0x80008408                FT_GlyphLoader_Rewind
                0x8000c57c                FT_Get_Sfnt_Table
                0x80008fc4                FT_New_GlyphSlot
                0x800089a0                FT_GlyphLoader_CopyPoints
                0x80006478                FT_FloorFix
                0x8000d9cc                ft_stub_set_pixel_sizes
                0x800070b0                FT_Outline_Decompose
                0x8000bac0                FT_Set_Pixel_Sizes
                0x8000be48                FT_Get_Charmap_Index
                0x80006d0c                FT_Atan2
                0x80006494                FT_Sqrt32
                0x8000c360                FT_Get_Glyph_Name
                0x8000bd70                FT_Select_Charmap
                0x80007bdc                FT_Outline_Render
                0x80007e20                FT_Outline_Transform
                0x8000b928                FT_Request_Size
                0x80009c9c                FT_Raccess_Get_DataOffsets
                0x8000d6ec                FT_New_Library
                0x800099a4                FT_Get_Module
                0x80005b34                FT_Stream_GetOffset
                0x8000d064                FT_Remove_Module
                0x80008468                FT_GlyphLoader_Reset
                0x80005658                FT_Stream_Skip
                0x8000671c                FT_MulFix
                0x8000c154                FT_Get_Next_Char
                0x80005264                FT_List_Up
                0x80007ea0                FT_Outline_Get_Orientation
                0x8000b0b0                FT_Attach_File
                0x80007d04                FT_Outline_Get_Bitmap
                0x80005968                FT_Stream_ExtractFrame
                0x800061b0                FT_Stream_ReadFields
                0x80006dd4                FT_Vector_Rotate
                0x800083b0                FT_GlyphLoader_New
                0x8000d8dc                FT_Get_TrueType_Engine_Type
                0x80007044                FT_Vector_From_Polar
                0x80005c1c                FT_Stream_ReadChar
                0x8000c61c                FT_Load_Sfnt_Table
                0x80006d7c                FT_Vector_Unit
                0x80008cfc                FT_Stream_Free
                0x80008124                FT_Outline_Embolden
                0x80007710                FT_Outline_Check
                0x8000cfb8                FT_Load_Char
                0x80009a60                FT_Raccess_Get_HeaderInfo
                0x8000c938                FT_Get_Renderer
                0x8000b480                FT_Select_Metrics
                0x8000c724                FT_Sfnt_Table_Info
                0x80007d6c                FT_Vector_Transform
                0x800057ec                FT_Stream_EnterFrame
                0x8000ba30                FT_Set_Char_Size
                0x80009228                FT_Set_Transform
                0x80008e28                ft_glyphslot_alloc_bitmap
                0x8000daf0                FT_Get_Sfnt_Name_Count
                0x800077b4                FT_Outline_Copy
                0x80006c70                FT_Cos
                0x80008dec                ft_glyphslot_set_bitmap
                0x800085b0                FT_GlyphLoader_CreateExtra
                0x8000b898                FT_Select_Size
                0x800078a0                FT_Outline_Get_CBox
                0x8000d29c                FT_Add_Module
                0x8000522c                FT_List_Remove
                0x800075a0                FT_Outline_New_Internal
                0x8000788c                FT_Outline_Done
                0x800051fc                FT_List_Insert
                0x80007af0                FT_Set_Renderer
                0x8000552c                FT_Free
                0x80005bcc                FT_Stream_GetLongLE
                0x8000c814                FT_Get_CMap_Language_ID
                0x80007058                FT_Angle_Diff
                0x8000d93c                ft_stub_set_char_sizes
                0x80008924                FT_GlyphLoader_Add
                0x80008d74                ft_glyphslot_free_bitmap
                0x8000a28c                FT_Open_Face
                0x8000afe8                FT_Attach_Stream
                0x80008ad0                ft_service_list_lookup
                0x80008bd0                FT_Stream_New
                0x8000d800                FT_Done_Library
                0x800052c8                FT_List_Iterate
                0x80006cb8                FT_Sin
                0x80005a90                FT_Stream_GetChar
                0x800051a4                FT_List_Find
                0x800074d0                FT_Outline_Done_Internal
                0x8000d7b8                FT_Library_Version
                0x8000c940                FT_Render_Glyph_Internal
                0x80008b90                ft_validator_run
                0x8000bfcc                FT_CMap_New
                0x8000bca0                FT_Get_Track_Kerning
                0x8000b1fc                FT_Match_Size
                0x8000c1e0                FT_Get_First_Char
                0x80005dcc                FT_Stream_ReadShortLE
                0x80006ec8                FT_Vector_Length
                0x8000afa4                FT_New_Face
                0x80008510                FT_GlyphLoader_Done
                0x80004fbc                ft_mem_qrealloc
                0x8000c278                FT_Get_Name_Index
                0x800054e4                FT_QRealloc
                0x80005fb8                FT_Stream_ReadLong
                0x8000d5cc                FT_Get_Module_Interface
                0x80005af8                FT_Stream_GetShortLE
                0x80005eb4                FT_Stream_ReadOffset
                0x8000be84                FT_CMap_Done
                0x80005580                FT_Stream_OpenMemory
                0x80006cc4                FT_Tan
                0x800060b4                FT_Stream_ReadLongLE
                0x8000c8c0                FT_Activate_Size
                0x8000c498                FT_Get_Postscript_Name
                0x80005664                FT_Stream_Pos
                0x8000644c                FT_CeilFix
                0x80005ce4                FT_Stream_ReadShort
                0x8000542c                FT_Alloc
                0x800076fc                FT_Outline_New
 .text          0x8000e36c     0x4460 c:/devkitpro/devkitppc/bin/../lib/gcc/powerpc-gekko/4.2.3/../../../../powerpc-gekko/lib\libfreetype.a(truetype.o)
 .text          0x800127cc     0x4e84 c:/devkitpro/devkitppc/bin/../lib/gcc/powerpc-gekko/4.2.3/../../../../powerpc-gekko/lib\libfreetype.a(type1.o)
 .text          0x80017650     0x5a98 c:/devkitpro/devkitppc/bin/../lib/gcc/powerpc-gekko/4.2.3/../../../../powerpc-gekko/lib\libfreetype.a(cff.o)
 .text          0x8001d0e8     0x1acc c:/devkitpro/devkitppc/bin/../lib/gcc/powerpc-gekko/4.2.3/../../../../powerpc-gekko/lib\libfreetype.a(type1cid.o)
 .text          0x8001ebb4     0x3858 c:/devkitpro/devkitppc/bin/../lib/gcc/powerpc-gekko/4.2.3/../../../../powerpc-gekko/lib\libfreetype.a(pfr.o)
 .text          0x8002240c     0x223c c:/devkitpro/devkitppc/bin/../lib/gcc/powerpc-gekko/4.2.3/../../../../powerpc-gekko/lib\libfreetype.a(type42.o)
 .text          0x80024648      0xd0c c:/devkitpro/devkitppc/bin/../lib/gcc/powerpc-gekko/4.2.3/../../../../powerpc-gekko/lib\libfreetype.a(winfnt.o)
 .text          0x80025354     0x1fb8 c:/devkitpro/devkitppc/bin/../lib/gcc/powerpc-gekko/4.2.3/../../../../powerpc-gekko/lib\libfreetype.a(pcf.o)
 .text          0x8002730c     0x3f30 c:/devkitpro/devkitppc/bin/../lib/gcc/powerpc-gekko/4.2.3/../../../../powerpc-gekko/lib\libfreetype.a(bdf.o)
 .text          0x8002b23c     0x775c c:/devkitpro/devkitppc/bin/../lib/gcc/powerpc-gekko/4.2.3/../../../../powerpc-gekko/lib\libfreetype.a(sfnt.o)
 .text          0x80032998     0x57b0 c:/devkitpro/devkitppc/bin/../lib/gcc/powerpc-gekko/4.2.3/../../../../powerpc-gekko/lib\libfreetype.a(autofit.o)
 .text          0x80038148     0x397c c:/devkitpro/devkitppc/bin/../lib/gcc/powerpc-gekko/4.2.3/../../../../powerpc-gekko/lib\libfreetype.a(pshinter.o)
                0x8003a850                ps_hints_apply
 .text          0x8003bac4     0x2930 c:/devkitpro/devkitppc/bin/../lib/gcc/powerpc-gekko/4.2.3/../../../../powerpc-gekko/lib\libfreetype.a(raster.o)
 .text          0x8003e3f4     0x2384 c:/devkitpro/devkitppc/bin/../lib/gcc/powerpc-gekko/4.2.3/../../../../powerpc-gekko/lib\libfreetype.a(smooth.o)
 .text          0x80040778     0x2d70 c:/devkitpro/devkitppc/bin/../lib/gcc/powerpc-gekko/4.2.3/../../../../powerpc-gekko/lib\libfreetype.a(ftgzip.o)
                0x800431b8                FT_Stream_OpenGzip
 .text          0x800434e8      0xb84 c:/devkitpro/devkitppc/bin/../lib/gcc/powerpc-gekko/4.2.3/../../../../powerpc-gekko/lib\libfreetype.a(ftlzw.o)
                0x80043700                FT_Stream_OpenLZW
                0x80043560                ft_lzwstate_reset
                0x80043590                ft_lzwstate_done
                0x80043a44                ft_lzwstate_io
                0x80043688                ft_lzwstate_init
 .text          0x8004406c     0x4058 c:/devkitpro/devkitppc/bin/../lib/gcc/powerpc-gekko/4.2.3/../../../../powerpc-gekko/lib\libfreetype.a(psaux.o)
 .text          0x800480c4      0x6d4 c:/devkitpro/devkitppc/bin/../lib/gcc/powerpc-gekko/4.2.3/../../../../powerpc-gekko/lib\libfreetype.a(psnames.o)
 .text          0x80048798      0x248 c:/devkitpro/devkitppc/bin/../lib/gcc/powerpc-gekko/4.2.3/../../../../powerpc-gekko/lib\libfreetype.a(ftsystem.o)
                0x800489b4                FT_Done_Memory
                0x8004895c                FT_New_Memory
                0x800488a8                FT_Stream_Open
 .text          0x800489e0      0xce0 c:/devkitpro/devkitppc/bin/../lib/gcc/powerpc-gekko/4.2.3/../../../../powerpc-gekko/lib\libfreetype.a(ftglyph.o)
                0x800494a8                FT_Get_Glyph
                0x80049238                FT_Glyph_To_Bitmap
                0x80048b04                FT_Matrix_Invert
                0x800489e0                FT_Matrix_Multiply
                0x800491d4                FT_Done_Glyph
                0x800490c0                FT_Glyph_Get_CBox
                0x80049018                FT_Glyph_Transform
                0x800495c0                FT_Glyph_Copy
 .text          0x800496c0      0xbc4 c:/devkitpro/devkitppc/bin/../lib/gcc/powerpc-gekko/4.2.3/../../../../powerpc-gekko/lib\libfreetype.a(ftbitmap.o)
                0x800496c0                FT_Bitmap_New
                0x80049c34                FT_Bitmap_Done
                0x80049868                FT_Bitmap_Convert
                0x800496fc                FT_Bitmap_Copy
                0x80049cbc                FT_Bitmap_Embolden
 .text          0x8004a284      0x86c c:/devkitpro/devkitppc/bin/../lib/gcc/powerpc-gekko/4.2.3/../../../../powerpc-gekko/lib\libjpeg.a(jpgogc.o)
                0x8004a3f8                JPEG_CopyToBuffer
                0x8004a610                JPEG_Decompress
 .text          0x8004aaf0      0x1a0 c:/devkitpro/devkitppc/bin/../lib/gcc/powerpc-gekko/4.2.3/../../../../powerpc-gekko/lib\libjpeg.a(jmemsrc.o)
                0x8004abdc                jpeg_memory_src
 .text          0x8004ac90      0x7f8 c:/devkitpro/devkitppc/bin/../lib/gcc/powerpc-gekko/4.2.3/../../../../powerpc-gekko/lib\libjpeg.a(jdapimin.o)
                0x8004adf8                jpeg_abort_decompress
                0x8004add8                jpeg_destroy_decompress
                0x8004ac90                jpeg_CreateDecompress
                0x8004b2d4                jpeg_has_multiple_scans
                0x8004ae18                jpeg_consume_input
                0x8004b254                jpeg_input_complete
                0x8004b168                jpeg_read_header
                0x8004b354                jpeg_finish_decompress
 .text          0x8004b488      0x78c c:/devkitpro/devkitppc/bin/../lib/gcc/powerpc-gekko/4.2.3/../../../../powerpc-gekko/lib\libjpeg.a(jdapistd.o)
                0x8004b7e0                jpeg_read_scanlines
                0x8004b634                jpeg_start_decompress
                0x8004b904                jpeg_read_raw_data
                0x8004bb1c                jpeg_finish_output
                0x8004ba70                jpeg_start_output
 .text          0x8004bc14      0x7f8 c:/devkitpro/devkitppc/bin/../lib/gcc/powerpc-gekko/4.2.3/../../../../powerpc-gekko/lib\libjpeg.a(jdinput.o)
                0x8004c384                jinit_input_controller
 .text          0x8004c40c     0x2734 c:/devkitpro/devkitppc/bin/../lib/gcc/powerpc-gekko/4.2.3/../../../../powerpc-gekko/lib\libjpeg.a(jdmarker.o)
                0x8004eabc                jpeg_set_marker_processor
                0x8004e6a8                jpeg_resync_to_restart
                0x8004e8d0                jinit_marker_reader
                0x8004e984                jpeg_save_markers
 .text          0x8004eb40      0xae8 c:/devkitpro/devkitppc/bin/../lib/gcc/powerpc-gekko/4.2.3/../../../../powerpc-gekko/lib\libjpeg.a(jdmaster.o)
                0x8004f264                jinit_master_decompress
                0x8004ec14                jpeg_calc_output_dimensions
                0x8004f18c                jpeg_new_colormap
 .text          0x8004f628      0x6d8 c:/devkitpro/devkitppc/bin/../lib/gcc/powerpc-gekko/4.2.3/../../../../powerpc-gekko/lib\libjpeg.a(jdmerge.o)
                0x8004fb18                jinit_merged_upsampler
 .text          0x8004fd00     0x10f4 c:/devkitpro/devkitppc/bin/../lib/gcc/powerpc-gekko/4.2.3/../../../../powerpc-gekko/lib\libjpeg.a(jdphuff.o)
                0x80050d2c                jinit_phuff_decoder
 .text          0x80050df4      0x5d4 c:/devkitpro/devkitppc/bin/../lib/gcc/powerpc-gekko/4.2.3/../../../../powerpc-gekko/lib\libjpeg.a(jdpostct.o)
                0x800512b0                jinit_d_post_controller
 .text          0x800513c8      0x95c c:/devkitpro/devkitppc/bin/../lib/gcc/powerpc-gekko/4.2.3/../../../../powerpc-gekko/lib\libjpeg.a(jdsample.o)
                0x80051a28                jinit_upsampler
 .text          0x80051d24      0x2b8 c:/devkitpro/devkitppc/bin/../lib/gcc/powerpc-gekko/4.2.3/../../../../powerpc-gekko/lib\libjpeg.a(jerror.o)
                0x80051f6c                jpeg_std_error
 .text          0x80051fdc     0x1524 c:/devkitpro/devkitppc/bin/../lib/gcc/powerpc-gekko/4.2.3/../../../../powerpc-gekko/lib\libjpeg.a(jmemmgr.o)
                0x8005333c                jinit_memory_mgr
 .text          0x80053500       0xd8 c:/devkitpro/devkitppc/bin/../lib/gcc/powerpc-gekko/4.2.3/../../../../powerpc-gekko/lib\libjpeg.a(jmemnobs.o)
                0x80053500                jpeg_get_small
                0x800535cc                jpeg_mem_init
                0x80053598                jpeg_open_backing_store
                0x800535d4                jpeg_mem_term
                0x80053590                jpeg_mem_available
                0x80053548                jpeg_get_large
                0x8005356c                jpeg_free_large
                0x80053524                jpeg_free_small
 .text          0x800535d8      0xf70 c:/devkitpro/devkitppc/bin/../lib/gcc/powerpc-gekko/4.2.3/../../../../powerpc-gekko/lib\libjpeg.a(jquant1.o)
                0x80054188                jinit_1pass_quantizer
 .text          0x80054548     0x16dc c:/devkitpro/devkitppc/bin/../lib/gcc/powerpc-gekko/4.2.3/../../../../powerpc-gekko/lib\libjpeg.a(jquant2.o)
                0x800559e4                jinit_2pass_quantizer
 .text          0x80055c24       0xf4 c:/devkitpro/devkitppc/bin/../lib/gcc/powerpc-gekko/4.2.3/../../../../powerpc-gekko/lib\libjpeg.a(jutils.o)
                0x80055c34                jround_up
                0x80055c24                jdiv_round_up
                0x80055c48                jcopy_sample_rows
                0x80055cf0                jzero_far
                0x80055cc0                jcopy_block_row
 .text          0x80055d18      0x198 c:/devkitpro/devkitppc/bin/../lib/gcc/powerpc-gekko/4.2.3/../../../../powerpc-gekko/lib\libjpeg.a(jcomapi.o)
                0x80055dcc                jpeg_destroy
                0x80055e74                jpeg_alloc_huff_table
                0x80055d18                jpeg_abort
                0x80055e38                jpeg_alloc_quant_table
 .text          0x80055eb0     0x12cc c:/devkitpro/devkitppc/bin/../lib/gcc/powerpc-gekko/4.2.3/../../../../powerpc-gekko/lib\libjpeg.a(jdcoefct.o)
                0x80056fa8                jinit_d_coef_controller
 .text          0x8005717c      0x708 c:/devkitpro/devkitppc/bin/../lib/gcc/powerpc-gekko/4.2.3/../../../../powerpc-gekko/lib\libjpeg.a(jdcolor.o)
                0x80057644                jinit_color_deconverter
 .text          0x80057884      0x3d0 c:/devkitpro/devkitppc/bin/../lib/gcc/powerpc-gekko/4.2.3/../../../../powerpc-gekko/lib\libjpeg.a(jddctmgr.o)
                0x80057b80                jinit_inverse_dct
 .text          0x80057c54      0xf28 c:/devkitpro/devkitppc/bin/../lib/gcc/powerpc-gekko/4.2.3/../../../../powerpc-gekko/lib\libjpeg.a(jdhuff.o)
                0x80057c54                jpeg_make_d_derived_tbl
                0x800583f4                jpeg_huff_decode
                0x80058234                jpeg_fill_bit_buffer
                0x80058b04                jinit_huff_decoder
 .text          0x80058b7c      0x960 c:/devkitpro/devkitppc/bin/../lib/gcc/powerpc-gekko/4.2.3/../../../../powerpc-gekko/lib\libjpeg.a(jdmainct.o)
                0x80059254                jinit_d_main_controller
 .text          0x800594dc      0x514 c:/devkitpro/devkitppc/bin/../lib/gcc/powerpc-gekko/4.2.3/../../../../powerpc-gekko/lib\libjpeg.a(jidctflt.o)
                0x800594dc                jpeg_idct_float
 .text          0x800599f0      0x448 c:/devkitpro/devkitppc/bin/../lib/gcc/powerpc-gekko/4.2.3/../../../../powerpc-gekko/lib\libjpeg.a(jidctfst.o)
                0x800599f0                jpeg_idct_ifast
 .text          0x80059e38      0x520 c:/devkitpro/devkitppc/bin/../lib/gcc/powerpc-gekko/4.2.3/../../../../powerpc-gekko/lib\libjpeg.a(jidctint.o)
                0x80059e38                jpeg_idct_islow
 .text          0x8005a358      0x5e8 c:/devkitpro/devkitppc/bin/../lib/gcc/powerpc-gekko/4.2.3/../../../../powerpc-gekko/lib\libjpeg.a(jidctred.o)
                0x8005a910                jpeg_idct_1x1
                0x8005a6ac                jpeg_idct_2x2
                0x8005a358                jpeg_idct_4x4
 .text          0x8005a940      0x430 c:/devkitpro/devkitppc/bin/../lib/gcc/powerpc-gekko/4.2.3\libgcc.a(_udivdi3.o)
                0x8005a940                __udivdi3
 .text          0x8005ad70       0x28 c:/devkitpro/devkitppc/bin/../lib/gcc/powerpc-gekko/4.2.3/../../../../powerpc-gekko/lib\libsysbase.a(abort.o)
                0x8005ad70                abort
 .text          0x8005ad98      0x280 c:/devkitpro/devkitppc/bin/../lib/gcc/powerpc-gekko/4.2.3/../../../../powerpc-gekko/lib\libsysbase.a(iosupport.o)
                0x8005afc8                RemoveDevice
                0x8005ad98                setDefaultDevice
                0x8005adb0                AddDevice
                0x8005aed8                FindDevice
 .text          0x8005b018       0x28 c:/devkitpro/devkitppc/bin/../lib/gcc/powerpc-gekko/4.2.3/../../../../powerpc-gekko/lib\libsysbase.a(_exit.o)
                0x8005b018                _exit
 .text          0x8005b040       0x9c c:/devkitpro/devkitppc/bin/../lib/gcc/powerpc-gekko/4.2.3/../../../../powerpc-gekko/lib\libsysbase.a(build_argv.o)
                0x8005b040                build_argv
 .text          0x8005b0dc      0x168 c:/devkitpro/devkitppc/bin/../lib/gcc/powerpc-gekko/4.2.3/../../../../powerpc-gekko/lib\libsysbase.a(syscall_support.o)
                0x8005b210                __malloc_unlock
                0x8005b15c                __libc_lock_release
                0x8005b0dc                __libc_lock_init
                0x8005b1dc                __malloc_lock
                0x8005b11c                __libc_lock_close
                0x8005b19c                __libc_lock_acquire
 .text          0x8005b244       0x50 c:/devkitpro/devkitppc/bin/../lib/gcc/powerpc-gekko/4.2.3/../../../../powerpc-gekko/lib\libc.a(lib_a-atol.o)
                0x8005b244                _atol_r
                0x8005b26c                atol
 .text          0x8005b294       0x34 c:/devkitpro/devkitppc/bin/../lib/gcc/powerpc-gekko/4.2.3/../../../../powerpc-gekko/lib\libc.a(lib_a-calloc.o)
                0x8005b294                calloc
 .text          0x8005b2c8       0xd0 c:/devkitpro/devkitppc/bin/../lib/gcc/powerpc-gekko/4.2.3/../../../../powerpc-gekko/lib\libc.a(lib_a-callocr.o)
                0x8005b2c8                _calloc_r
 .text          0x8005b398       0x24 c:/devkitpro/devkitppc/bin/../lib/gcc/powerpc-gekko/4.2.3/../../../../powerpc-gekko/lib\libc.a(lib_a-ctime.o)
                0x8005b398                ctime
 .text          0x8005b3bc        0xc c:/devkitpro/devkitppc/bin/../lib/gcc/powerpc-gekko/4.2.3/../../../../powerpc-gekko/lib\libc.a(lib_a-errno.o)
                0x8005b3bc                __errno
 .text          0x8005b3c8       0x40 c:/devkitpro/devkitppc/bin/../lib/gcc/powerpc-gekko/4.2.3/../../../../powerpc-gekko/lib\libc.a(lib_a-exit.o)
                0x8005b3c8                exit
 .text          0x8005b408      0x188 c:/devkitpro/devkitppc/bin/../lib/gcc/powerpc-gekko/4.2.3/../../../../powerpc-gekko/lib\libc.a(lib_a-fclose.o)
                0x8005b408                _fclose_r
                0x8005b580                fclose
 .text          0x8005b590      0x310 c:/devkitpro/devkitppc/bin/../lib/gcc/powerpc-gekko/4.2.3/../../../../powerpc-gekko/lib\libc.a(lib_a-fflush.o)
                0x8005b850                fflush
                0x8005b590                _fflush_r
 .text          0x8005b8a0      0x4ac c:/devkitpro/devkitppc/bin/../lib/gcc/powerpc-gekko/4.2.3/../../../../powerpc-gekko/lib\libc.a(lib_a-findfp.o)
                0x8005ba8c                __sinit
                0x8005bbac                __sfmoreglue
                0x8005b8c8                _cleanup
                0x8005b8a0                _cleanup_r
                0x8005bb78                __fp_lock_all
                0x8005bb28                __sfp_lock_acquire
                0x8005bc24                __sfp
                0x8005b934                __sinit_lock_release
                0x8005b988                __fp_unlock_all
                0x8005b95c                __sfp_lock_release
                0x8005ba40                __sinit_lock_acquire
 .text          0x8005bd4c      0x154 c:/devkitpro/devkitppc/bin/../lib/gcc/powerpc-gekko/4.2.3/../../../../powerpc-gekko/lib\libc.a(lib_a-fopen.o)
                0x8005be88                fopen
                0x8005bd4c                _fopen_r
 .text          0x8005bea0      0x110 c:/devkitpro/devkitppc/bin/../lib/gcc/powerpc-gekko/4.2.3/../../../../powerpc-gekko/lib\libc.a(lib_a-fprintf.o)
                0x8005bea0                fprintf
                0x8005bf34                _fprintf_r
 .text          0x8005bfb0      0x3c0 c:/devkitpro/devkitppc/bin/../lib/gcc/powerpc-gekko/4.2.3/../../../../powerpc-gekko/lib\libc.a(lib_a-fread.o)
                0x8005c348                fread
                0x8005bfb0                _fread_r
 .text          0x8005c370      0x3f8 c:/devkitpro/devkitppc/bin/../lib/gcc/powerpc-gekko/4.2.3/../../../../powerpc-gekko/lib\libc.a(lib_a-freer.o)
                0x8005c48c                _free_r
                0x8005c370                _malloc_trim_r
 .text          0x8005c768      0x5b4 c:/devkitpro/devkitppc/bin/../lib/gcc/powerpc-gekko/4.2.3/../../../../powerpc-gekko/lib\libc.a(lib_a-fseek.o)
                0x8005ccfc                fseek
                0x8005c768                _fseek_r
 .text          0x8005cd1c      0x174 c:/devkitpro/devkitppc/bin/../lib/gcc/powerpc-gekko/4.2.3/../../../../powerpc-gekko/lib\libc.a(lib_a-ftell.o)
                0x8005ce80                ftell
                0x8005cd1c                _ftell_r
 .text          0x8005ce90      0x20c c:/devkitpro/devkitppc/bin/../lib/gcc/powerpc-gekko/4.2.3/../../../../powerpc-gekko/lib\libc.a(lib_a-fwalk.o)
                0x8005cf9c                _fwalk
                0x8005ce90                _fwalk_reent
 .text          0x8005d09c       0x64 c:/devkitpro/devkitppc/bin/../lib/gcc/powerpc-gekko/4.2.3/../../../../powerpc-gekko/lib\libc.a(lib_a-getenv.o)
                0x8005d09c                getenv
                0x8005d0cc                _findenv
 .text          0x8005d100      0x168 c:/devkitpro/devkitppc/bin/../lib/gcc/powerpc-gekko/4.2.3/../../../../powerpc-gekko/lib\libc.a(lib_a-getenv_r.o)
                0x8005d100                _findenv_r
                0x8005d244                _getenv_r
 .text          0x8005d268       0x2c c:/devkitpro/devkitppc/bin/../lib/gcc/powerpc-gekko/4.2.3/../../../../powerpc-gekko/lib\libc.a(lib_a-lcltime.o)
                0x8005d268                localtime
 .text          0x8005d294       0x24 c:/devkitpro/devkitppc/bin/../lib/gcc/powerpc-gekko/4.2.3/../../../../powerpc-gekko/lib\libc.a(lib_a-lcltime_r.o)
                0x8005d294                localtime_r
 .text          0x8005d2b8      0x1bc c:/devkitpro/devkitppc/bin/../lib/gcc/powerpc-gekko/4.2.3/../../../../powerpc-gekko/lib\libc.a(lib_a-makebuf.o)
                0x8005d2b8                __smakebuf_r
 .text          0x8005d474       0x34 c:/devkitpro/devkitppc/bin/../lib/gcc/powerpc-gekko/4.2.3/../../../../powerpc-gekko/lib\libc.a(lib_a-malign.o)
                0x8005d474                memalign
 .text          0x8005d4a8      0x1b0 c:/devkitpro/devkitppc/bin/../lib/gcc/powerpc-gekko/4.2.3/../../../../powerpc-gekko/lib\libc.a(lib_a-malignr.o)
                0x8005d4a8                _memalign_r
 .text          0x8005d658       0x58 c:/devkitpro/devkitppc/bin/../lib/gcc/powerpc-gekko/4.2.3/../../../../powerpc-gekko/lib\libc.a(lib_a-malloc.o)
                0x8005d684                malloc
                0x8005d658                free
 .text          0x8005d6b0      0x86c c:/devkitpro/devkitppc/bin/../lib/gcc/powerpc-gekko/4.2.3/../../../../powerpc-gekko/lib\libc.a(lib_a-mallocr.o)
                0x8005d6b0                _malloc_r
 .text          0x8005df1c       0xf4 c:/devkitpro/devkitppc/bin/../lib/gcc/powerpc-gekko/4.2.3/../../../../powerpc-gekko/lib\libc.a(lib_a-memchr.o)
                0x8005df1c                memchr
 .text          0x8005e010       0x8c c:/devkitpro/devkitppc/bin/../lib/gcc/powerpc-gekko/4.2.3/../../../../powerpc-gekko/lib\libc.a(lib_a-memcmp.o)
                0x8005e010                memcmp
 .text          0x8005e09c       0xc8 c:/devkitpro/devkitppc/bin/../lib/gcc/powerpc-gekko/4.2.3/../../../../powerpc-gekko/lib\libc.a(lib_a-memcpy.o)
                0x8005e09c                memcpy
 .text          0x8005e164      0x104 c:/devkitpro/devkitppc/bin/../lib/gcc/powerpc-gekko/4.2.3/../../../../powerpc-gekko/lib\libc.a(lib_a-memmove.o)
                0x8005e164                memmove
 .text          0x8005e268       0xac c:/devkitpro/devkitppc/bin/../lib/gcc/powerpc-gekko/4.2.3/../../../../powerpc-gekko/lib\libc.a(lib_a-memset.o)
                0x8005e268                memset
 .text          0x8005e314      0x870 c:/devkitpro/devkitppc/bin/../lib/gcc/powerpc-gekko/4.2.3/../../../../powerpc-gekko/lib\libc.a(lib_a-mktm_r.o)
                0x8005e314                __tzcalc_limits
                0x8005e588                _mktm_r
 .text          0x8005eb84      0x124 c:/devkitpro/devkitppc/bin/../lib/gcc/powerpc-gekko/4.2.3/../../../../powerpc-gekko/lib\libc.a(lib_a-printf.o)
                0x8005eb84                printf
                0x8005ec1c                _printf_r
 .text          0x8005eca8       0xa8 c:/devkitpro/devkitppc/bin/../lib/gcc/powerpc-gekko/4.2.3/../../../../powerpc-gekko/lib\libc.a(lib_a-puts.o)
                0x8005eca8                _puts_r
                0x8005ed40                puts
 .text          0x8005ed50      0xafc c:/devkitpro/devkitppc/bin/../lib/gcc/powerpc-gekko/4.2.3/../../../../powerpc-gekko/lib\libc.a(lib_a-qsort.o)
                0x8005ed50                qsort
 .text          0x8005f84c       0x34 c:/devkitpro/devkitppc/bin/../lib/gcc/powerpc-gekko/4.2.3/../../../../powerpc-gekko/lib\libc.a(lib_a-realloc.o)
                0x8005f84c                realloc
 .text          0x8005f880      0x668 c:/devkitpro/devkitppc/bin/../lib/gcc/powerpc-gekko/4.2.3/../../../../powerpc-gekko/lib\libc.a(lib_a-reallocr.o)
                0x8005f880                _realloc_r
 .text          0x8005fee8      0x248 c:/devkitpro/devkitppc/bin/../lib/gcc/powerpc-gekko/4.2.3/../../../../powerpc-gekko/lib\libc.a(lib_a-reent.o)
                0x8005ffa8                cleanup_glue
                0x8005fff8                _reclaim_reent
                0x8005fee8                _wrapup_reent
 .text          0x80060130      0x248 c:/devkitpro/devkitppc/bin/../lib/gcc/powerpc-gekko/4.2.3/../../../../powerpc-gekko/lib\libc.a(lib_a-refill.o)
                0x80060130                __srefill_r
 .text          0x80060378      0x180 c:/devkitpro/devkitppc/bin/../lib/gcc/powerpc-gekko/4.2.3/../../../../powerpc-gekko/lib\libc.a(lib_a-setjmp.o)
                0x80060434                longjmp
                0x80060378                setjmp
 .text          0x800604f8      0x2cc c:/devkitpro/devkitppc/bin/../lib/gcc/powerpc-gekko/4.2.3/../../../../powerpc-gekko/lib\libc.a(lib_a-setvbuf.o)
                0x800604f8                setvbuf
 .text          0x800607c4      0x188 c:/devkitpro/devkitppc/bin/../lib/gcc/powerpc-gekko/4.2.3/../../../../powerpc-gekko/lib\libc.a(lib_a-sprintf.o)
                0x80060890                _sprintf_r
                0x800607c4                sprintf
 .text          0x8006094c      0x1c4 c:/devkitpro/devkitppc/bin/../lib/gcc/powerpc-gekko/4.2.3/../../../../powerpc-gekko/lib\libc.a(lib_a-sscanf.o)
                0x80060a34                sscanf
                0x80060954                _sscanf_r
 .text          0x80060b10      0x178 c:/devkitpro/devkitppc/bin/../lib/gcc/powerpc-gekko/4.2.3/../../../../powerpc-gekko/lib\libc.a(lib_a-stdio.o)
                0x80060b34                __sseek
                0x80060c24                __sread
                0x80060b10                __sclose
                0x80060b9c                __swrite
 .text          0x80060c88       0x88 c:/devkitpro/devkitppc/bin/../lib/gcc/powerpc-gekko/4.2.3/../../../../powerpc-gekko/lib\libc.a(lib_a-strcat.o)
                0x80060c88                strcat
 .text          0x80060d10       0xc0 c:/devkitpro/devkitppc/bin/../lib/gcc/powerpc-gekko/4.2.3/../../../../powerpc-gekko/lib\libc.a(lib_a-strcmp.o)
                0x80060d10                strcmp
 .text          0x80060dd0       0x74 c:/devkitpro/devkitppc/bin/../lib/gcc/powerpc-gekko/4.2.3/../../../../powerpc-gekko/lib\libc.a(lib_a-strcpy.o)
                0x80060dd0                strcpy
 .text          0x80060e44       0x64 c:/devkitpro/devkitppc/bin/../lib/gcc/powerpc-gekko/4.2.3/../../../../powerpc-gekko/lib\libc.a(lib_a-strlen.o)
                0x80060e44                strlen
 .text          0x80060ea8      0x144 c:/devkitpro/devkitppc/bin/../lib/gcc/powerpc-gekko/4.2.3/../../../../powerpc-gekko/lib\libc.a(lib_a-strncmp.o)
                0x80060ea8                strncmp
 .text          0x80060fec       0xdc c:/devkitpro/devkitppc/bin/../lib/gcc/powerpc-gekko/4.2.3/../../../../powerpc-gekko/lib\libc.a(lib_a-strncpy.o)
                0x80060fec                strncpy
 .text          0x800610c8       0x44 c:/devkitpro/devkitppc/bin/../lib/gcc/powerpc-gekko/4.2.3/../../../../powerpc-gekko/lib\libc.a(lib_a-strnlen.o)
                0x800610c8                strnlen
 .text          0x8006110c       0x84 c:/devkitpro/devkitppc/bin/../lib/gcc/powerpc-gekko/4.2.3/../../../../powerpc-gekko/lib\libc.a(lib_a-strrchr.o)
                0x8006110c                strrchr
 .text          0x80061190      0x200 c:/devkitpro/devkitppc/bin/../lib/gcc/powerpc-gekko/4.2.3/../../../../powerpc-gekko/lib\libc.a(lib_a-strtol.o)
                0x80061370                strtol
                0x80061190                _strtol_r
 .text          0x80061390       0x3c c:/devkitpro/devkitppc/bin/../lib/gcc/powerpc-gekko/4.2.3/../../../../powerpc-gekko/lib\libc.a(lib_a-syswrite.o)
                0x80061390                write
 .text          0x800613cc       0x74 c:/devkitpro/devkitppc/bin/../lib/gcc/powerpc-gekko/4.2.3/../../../../powerpc-gekko/lib\libc.a(lib_a-tzlock.o)
                0x800613cc                __tz_unlock
                0x800613f4                __tz_lock
 .text          0x80061440     0x2344 c:/devkitpro/devkitppc/bin/../lib/gcc/powerpc-gekko/4.2.3/../../../../powerpc-gekko/lib\libc.a(lib_a-vfprintf.o)
                0x800614a0                _vfprintf_r
                0x80063764                vfprintf
 .text          0x80063784     0x151c c:/devkitpro/devkitppc/bin/../lib/gcc/powerpc-gekko/4.2.3/../../../../powerpc-gekko/lib\libc.a(lib_a-vfscanf.o)
                0x80064b34                __svfscanf
                0x80064b54                _vfscanf_r
                0x80064bf4                vfscanf
                0x80063784                __svfscanf_r
 .text          0x80064ca0       0xa4 c:/devkitpro/devkitppc/bin/../lib/gcc/powerpc-gekko/4.2.3/../../../../powerpc-gekko/lib\libc.a(lib_a-wcrtomb.o)
                0x80064ca0                _wcrtomb_r
                0x80064d24                wcrtomb
 .text          0x80064d44      0x1d8 c:/devkitpro/devkitppc/bin/../lib/gcc/powerpc-gekko/4.2.3/../../../../powerpc-gekko/lib\libc.a(lib_a-wcsrtombs.o)
                0x80064d44                _wcsrtombs_r
                0x80064ef4                wcsrtombs
 .text          0x80064f1c      0x464 c:/devkitpro/devkitppc/bin/../lib/gcc/powerpc-gekko/4.2.3/../../../../powerpc-gekko/lib\libc.a(lib_a-wctomb_r.o)
                0x80064f1c                _wctomb_r
 .text          0x80065380      0x178 c:/devkitpro/devkitppc/bin/../lib/gcc/powerpc-gekko/4.2.3/../../../../powerpc-gekko/lib\libc.a(lib_a-wsetup.o)
                0x80065380                __swsetup_r
 .text          0x800654f8      0x1ac c:/devkitpro/devkitppc/bin/../lib/gcc/powerpc-gekko/4.2.3/../../../../powerpc-gekko/lib\libc.a(lib_a-__call_atexit.o)
                0x800654f8                __call_exitprocs
 .text          0x800656a4       0x2c c:/devkitpro/devkitppc/bin/../lib/gcc/powerpc-gekko/4.2.3/../../../../powerpc-gekko/lib\libc.a(lib_a-asctime.o)
                0x800656a4                asctime
 .text          0x800656d0       0x88 c:/devkitpro/devkitppc/bin/../lib/gcc/powerpc-gekko/4.2.3/../../../../powerpc-gekko/lib\libc.a(lib_a-asctime_r.o)
                0x800656d0                asctime_r
 .text          0x80065758     0x1390 c:/devkitpro/devkitppc/bin/../lib/gcc/powerpc-gekko/4.2.3/../../../../powerpc-gekko/lib\libc.a(lib_a-dtoa.o)
                0x80065994                _dtoa_r
 .text          0x80066ae8       0x74 c:/devkitpro/devkitppc/bin/../lib/gcc/powerpc-gekko/4.2.3/../../../../powerpc-gekko/lib\libc.a(lib_a-envlock.o)
                0x80066ae8                __env_unlock
                0x80066b10                __env_lock
 .text          0x80066b5c       0xa4 c:/devkitpro/devkitppc/bin/../lib/gcc/powerpc-gekko/4.2.3/../../../../powerpc-gekko/lib\libc.a(lib_a-flags.o)
                0x80066b5c                __sflags
 .text          0x80066c00      0x528 c:/devkitpro/devkitppc/bin/../lib/gcc/powerpc-gekko/4.2.3/../../../../powerpc-gekko/lib\libc.a(lib_a-fvwrite.o)
                0x80066c00                __sfvwrite_r
 .text          0x80067128        0xc c:/devkitpro/devkitppc/bin/../lib/gcc/powerpc-gekko/4.2.3/../../../../powerpc-gekko/lib\libc.a(lib_a-gettzinfo.o)
                0x80067128                __gettzinfo
 .text          0x80067134      0x180 c:/devkitpro/devkitppc/bin/../lib/gcc/powerpc-gekko/4.2.3/../../../../powerpc-gekko/lib\libc.a(lib_a-iswspace.o)
                0x80067134                iswspace
 .text          0x800672b4      0x234 c:/devkitpro/devkitppc/bin/../lib/gcc/powerpc-gekko/4.2.3/../../../../powerpc-gekko/lib\libc.a(lib_a-jp2uc.o)
                0x800672b4                __jp2uc
 .text          0x800674e8      0x4c4 c:/devkitpro/devkitppc/bin/../lib/gcc/powerpc-gekko/4.2.3/../../../../powerpc-gekko/lib\libc.a(lib_a-locale.o)
                0x8006750c                _setlocale_r
                0x800674e8                __locale_charset
                0x800674f4                _localeconv_r
                0x80067994                setlocale
                0x80067500                localeconv
 .text          0x800679ac       0xb4 c:/devkitpro/devkitppc/bin/../lib/gcc/powerpc-gekko/4.2.3/../../../../powerpc-gekko/lib\libc.a(lib_a-mbrtowc.o)
                0x80067a38                mbrtowc
                0x800679ac                _mbrtowc_r
 .text          0x80067a60      0x9a8 c:/devkitpro/devkitppc/bin/../lib/gcc/powerpc-gekko/4.2.3/../../../../powerpc-gekko/lib\libc.a(lib_a-mbtowc_r.o)
                0x80067a60                _mbtowc_r
 .text          0x80068408     0x1114 c:/devkitpro/devkitppc/bin/../lib/gcc/powerpc-gekko/4.2.3/../../../../powerpc-gekko/lib\libc.a(lib_a-mprec.o)
                0x80068870                _mprec_log10
                0x80068914                __any_on
                0x800689b4                _Balloc
                0x800687ac                __ratio
                0x80069174                __i2b
                0x8006865c                __b2d
                0x800693f4                __s2b
                0x8006855c                __mcmp
                0x8006842c                __hi0bits
                0x800692c8                __pow5mult
                0x80068dd8                __lshift
                0x80068f40                __multiply
                0x80068a84                __d2b
                0x800688ac                __copybits
                0x800685bc                __ulp
                0x80068c2c                __mdiff
                0x80068498                __lo0bits
                0x800691b0                __multadd
                0x80068408                _Bfree
 .text          0x8006951c       0x44 c:/devkitpro/devkitppc/bin/../lib/gcc/powerpc-gekko/4.2.3/../../../../powerpc-gekko/lib\libc.a(lib_a-s_isinfd.o)
                0x8006951c                __isinfd
 .text          0x80069560       0x38 c:/devkitpro/devkitppc/bin/../lib/gcc/powerpc-gekko/4.2.3/../../../../powerpc-gekko/lib\libc.a(lib_a-s_isnand.o)
                0x80069560                __isnand
 .text          0x80069598       0xf4 c:/devkitpro/devkitppc/bin/../lib/gcc/powerpc-gekko/4.2.3/../../../../powerpc-gekko/lib\libc.a(lib_a-sccl.o)
                0x80069598                __sccl
 .text          0x8006968c       0x18 c:/devkitpro/devkitppc/bin/../lib/gcc/powerpc-gekko/4.2.3/../../../../powerpc-gekko/lib\libc.a(lib_a-sf_nan.o)
                0x8006968c                nanf
 .text          0x800696a4      0x188 c:/devkitpro/devkitppc/bin/../lib/gcc/powerpc-gekko/4.2.3/../../../../powerpc-gekko/lib\libc.a(lib_a-siprintf.o)
                0x80069770                _siprintf_r
                0x800696a4                siprintf
 .text          0x8006982c       0xf0 c:/devkitpro/devkitppc/bin/../lib/gcc/powerpc-gekko/4.2.3/../../../../powerpc-gekko/lib\libc.a(lib_a-strchr.o)
                0x8006982c                strchr
 .text          0x8006991c     0x135c c:/devkitpro/devkitppc/bin/../lib/gcc/powerpc-gekko/4.2.3/../../../../powerpc-gekko/lib\libc.a(lib_a-strtod.o)
                0x80069968                _strtod_r
                0x8006ac60                strtod
                0x8006abf4                strtof
 .text          0x8006ac78      0x2c4 c:/devkitpro/devkitppc/bin/../lib/gcc/powerpc-gekko/4.2.3/../../../../powerpc-gekko/lib\libc.a(lib_a-strtoll_r.o)
                0x8006ac78                _strtoll_r
 .text          0x8006af3c      0x1ec c:/devkitpro/devkitppc/bin/../lib/gcc/powerpc-gekko/4.2.3/../../../../powerpc-gekko/lib\libc.a(lib_a-strtoul.o)
                0x8006b108                strtoul
                0x8006af3c                _strtoul_r
 .text          0x8006b128      0x288 c:/devkitpro/devkitppc/bin/../lib/gcc/powerpc-gekko/4.2.3/../../../../powerpc-gekko/lib\libc.a(lib_a-strtoull_r.o)
                0x8006b128                _strtoull_r
 .text          0x8006b3b0      0x368 c:/devkitpro/devkitppc/bin/../lib/gcc/powerpc-gekko/4.2.3/../../../../powerpc-gekko/lib\libc.a(lib_a-ungetc.o)
                0x8006b700                ungetc
                0x8006b3b0                __submore
                0x8006b4dc                _ungetc_r
 .text          0x8006b718     0x1610 c:/devkitpro/devkitppc/bin/../lib/gcc/powerpc-gekko/4.2.3/../../../../powerpc-gekko/lib\libc.a(lib_a-vfiprintf.o)
                0x8006cd08                vfiprintf
                0x8006b778                _vfiprintf_r
 .text          0x8006cd28      0x918 c:/devkitpro/devkitppc/bin/../lib/gcc/powerpc-gekko/4.2.3/../../../../powerpc-gekko/lib\libc.a(lib_a-gdtoa-gethex.o)
                0x8006cd60                __hexdig_init
                0x8006cebc                __gethex
 .text          0x8006d640      0x330 c:/devkitpro/devkitppc/bin/../lib/gcc/powerpc-gekko/4.2.3/../../../../powerpc-gekko/lib\libc.a(lib_a-gdtoa-hexnan.o)
                0x8006d674                __hexnan
 .text          0x8006d970       0xa0 c:/devkitpro/devkitppc/bin/../lib/gcc/powerpc-gekko/4.2.3/../../../../powerpc-gekko/lib\libsysbase.a(close.o)
                0x8006d970                _close_r
 .text          0x8006da10       0xc8 c:/devkitpro/devkitppc/bin/../lib/gcc/powerpc-gekko/4.2.3/../../../../powerpc-gekko/lib\libsysbase.a(fstat.o)
                0x8006da10                _fstat_r
 .text          0x8006dad8        0x8 c:/devkitpro/devkitppc/bin/../lib/gcc/powerpc-gekko/4.2.3/../../../../powerpc-gekko/lib\libsysbase.a(isatty.o)
                0x8006dad8                isatty
 .text          0x8006dae0       0xd0 c:/devkitpro/devkitppc/bin/../lib/gcc/powerpc-gekko/4.2.3/../../../../powerpc-gekko/lib\libsysbase.a(lseek.o)
                0x8006dae0                _lseek_r
 .text          0x8006dbb0      0x14c c:/devkitpro/devkitppc/bin/../lib/gcc/powerpc-gekko/4.2.3/../../../../powerpc-gekko/lib\libsysbase.a(open.o)
                0x8006dbb0                _open_r
 .text          0x8006dcfc       0xcc c:/devkitpro/devkitppc/bin/../lib/gcc/powerpc-gekko/4.2.3/../../../../powerpc-gekko/lib\libsysbase.a(read.o)
                0x8006dcfc                _read_r
 .text          0x8006ddc8       0x50 c:/devkitpro/devkitppc/bin/../lib/gcc/powerpc-gekko/4.2.3/../../../../powerpc-gekko/lib\libsysbase.a(sbrk.o)
                0x8006ddc8                _sbrk_r
 .text          0x8006de18       0xcc c:/devkitpro/devkitppc/bin/../lib/gcc/powerpc-gekko/4.2.3/../../../../powerpc-gekko/lib\libsysbase.a(write.o)
                0x8006de18                _write_r
 .text          0x8006dee4       0x6c c:/devkitpro/devkitppc/bin/../lib/gcc/powerpc-gekko/4.2.3/../../../../powerpc-gekko/lib\libsysbase.a(flock.o)
                0x8006df08                __flockfile
                0x8006dee4                __funlockfile
 .text          0x8006df50      0x120 c:/devkitpro/devkitppc/bin/../lib/gcc/powerpc-gekko/4.2.3/../../../../powerpc-gekko/lib\libsysbase.a(handle_manager.o)
                0x8006e014                __release_handle
                0x8006df7c                __alloc_handle
                0x8006df50                __get_handle
 .text          0x8006e070      0x450 c:/devkitpro/devkitppc/bin/../lib/gcc/powerpc-gekko/4.2.3\libgcc.a(_umoddi3.o)
                0x8006e070                __umoddi3
 .text          0x8006e4c0       0x6c c:/devkitpro/devkitppc/bin/../lib/gcc/powerpc-gekko/4.2.3/crtend.o
 *(.text.*)
 .text.getcolour
                0x8006e52c       0xbc freetype.o
 .text.setfontcolour
                0x8006e5e8       0x38 freetype.o
                0x8006e5e8                setfontcolour
 .text.ShowScreen
                0x8006e620       0x40 freetype.o
                0x8006e620                ShowScreen
 .text.ClearScreen
                0x8006e660       0x50 freetype.o
                0x8006e660                ClearScreen
 .text.DrawText
                0x8006e6b0      0x290 freetype.o
                0x8006e6b0                DrawText
 .text.setfontsize
                0x8006e940       0x48 freetype.o
                0x8006e940                setfontsize
 .text.FT_Init  0x8006e988       0xa8 freetype.o
                0x8006e988                FT_Init
 .text.on_off   0x8006ea30       0x54 template.o
                0x8006ea30                on_off
 .text.readpad  0x8006ea84      0x138 template.o
                0x8006ea84                readpad
 .text.main     0x8006ebbc     0x15a4 template.o
                0x8006ebbc                main
 .text.MP3Player_IsPlaying
                0x80070160        0xc c:/devkitPro/libogc/lib/cube\libmad.a(mp3player.o)
                0x80070160                MP3Player_IsPlaying
 .text.Do3Band  0x8007016c      0x12c c:/devkitPro/libogc/lib/cube\libmad.a(mp3player.o)
 .text.MP3Player_PlayBuffer
                0x80070298       0xc8 c:/devkitPro/libogc/lib/cube\libmad.a(mp3player.o)
                0x80070298                MP3Player_PlayBuffer
 .text.Init3BandState
                0x80070360      0x11c c:/devkitPro/libogc/lib/cube\libmad.a(mp3player.o)
 .text.StreamPlay
                0x8007047c      0x64c c:/devkitPro/libogc/lib/cube\libmad.a(mp3player.o)
 .text.DataTransferCallback
                0x80070ac8      0x1c8 c:/devkitPro/libogc/lib/cube\libmad.a(mp3player.o)
 .text._mp3ramcopy
                0x80070c90       0x98 c:/devkitPro/libogc/lib/cube\libmad.a(mp3player.o)
 .text.MP3Player_Init
                0x80070d28       0x44 c:/devkitPro/libogc/lib/cube\libmad.a(mp3player.o)
                0x80070d28                MP3Player_Init
 .text.mad_header_init
                0x80070d6c       0x40 c:/devkitPro/libogc/lib/cube\libmad.a(frame.o)
                0x80070d6c                mad_header_init
 .text.mad_frame_mute
                0x80070dac       0xb8 c:/devkitPro/libogc/lib/cube\libmad.a(frame.o)
                0x80070dac                mad_frame_mute
 .text.mad_frame_init
                0x80070e64       0x3c c:/devkitPro/libogc/lib/cube\libmad.a(frame.o)
                0x80070e64                mad_frame_init
 .text.decode_header
                0x80070ea0      0x2e0 c:/devkitPro/libogc/lib/cube\libmad.a(frame.o)
 .text.mad_header_decode
                0x80071180      0x4d0 c:/devkitPro/libogc/lib/cube\libmad.a(frame.o)
                0x80071180                mad_header_decode
 .text.mad_frame_decode
                0x80071650      0x114 c:/devkitPro/libogc/lib/cube\libmad.a(frame.o)
                0x80071650                mad_frame_decode
 .text.mad_frame_finish
                0x80071764       0x40 c:/devkitPro/libogc/lib/cube\libmad.a(frame.o)
                0x80071764                mad_frame_finish
 .text.II_samples
                0x800717a4      0x13c c:/devkitPro/libogc/lib/cube\libmad.a(layer12.o)
 .text.I_sample
                0x800718e0       0x84 c:/devkitPro/libogc/lib/cube\libmad.a(layer12.o)
 .text.mad_layer_II
                0x80071964      0x768 c:/devkitPro/libogc/lib/cube\libmad.a(layer12.o)
                0x80071964                mad_layer_II
 .text.mad_layer_I
                0x800720cc      0x434 c:/devkitPro/libogc/lib/cube\libmad.a(layer12.o)
                0x800720cc                mad_layer_I
 .text.III_requantize
                0x80072500       0xbc c:/devkitPro/libogc/lib/cube\libmad.a(layer3.o)
 .text.III_aliasreduce
                0x800725bc       0xf4 c:/devkitPro/libogc/lib/cube\libmad.a(layer3.o)
 .text.III_imdct_l
                0x800726b0     0x193c c:/devkitPro/libogc/lib/cube\libmad.a(layer3.o)
 .text.III_imdct_s
                0x80073fec      0x2e0 c:/devkitPro/libogc/lib/cube\libmad.a(layer3.o)
 .text.III_overlap
                0x800742cc       0x5c c:/devkitPro/libogc/lib/cube\libmad.a(layer3.o)
 .text.III_freqinver
                0x80074328       0x6c c:/devkitPro/libogc/lib/cube\libmad.a(layer3.o)
 .text.mad_layer_III
                0x80074394     0x2890 c:/devkitPro/libogc/lib/cube\libmad.a(layer3.o)
                0x80074394                mad_layer_III
 .text.mad_stream_sync
                0x80076c24       0xc0 c:/devkitPro/libogc/lib/cube\libmad.a(stream.o)
                0x80076c24                mad_stream_sync
 .text.mad_stream_buffer
                0x80076ce4       0x40 c:/devkitPro/libogc/lib/cube\libmad.a(stream.o)
                0x80076ce4                mad_stream_buffer
 .text.mad_stream_init
                0x80076d24       0x7c c:/devkitPro/libogc/lib/cube\libmad.a(stream.o)
                0x80076d24                mad_stream_init
 .text.mad_stream_finish
                0x80076da0       0x40 c:/devkitPro/libogc/lib/cube\libmad.a(stream.o)
                0x80076da0                mad_stream_finish
 .text.mad_synth_mute
                0x80076de0       0x74 c:/devkitPro/libogc/lib/cube\libmad.a(synth.o)
                0x80076de0                mad_synth_mute
 .text.mad_synth_init
                0x80076e54       0x40 c:/devkitPro/libogc/lib/cube\libmad.a(synth.o)
                0x80076e54                mad_synth_init
 .text.dct32    0x80076e94     0x1228 c:/devkitPro/libogc/lib/cube\libmad.a(synth.o)
 .text.synth_full
                0x800780bc      0x848 c:/devkitPro/libogc/lib/cube\libmad.a(synth.o)
 .text.synth_half
                0x80078904      0x850 c:/devkitPro/libogc/lib/cube\libmad.a(synth.o)
 .text.mad_synth_frame
                0x80079154      0x11c c:/devkitPro/libogc/lib/cube\libmad.a(synth.o)
                0x80079154                mad_synth_frame
 .text.reduce_timer
                0x80079270       0x38 c:/devkitPro/libogc/lib/cube\libmad.a(timer.o)
 .text.mad_timer_add
                0x800792a8       0x34 c:/devkitPro/libogc/lib/cube\libmad.a(timer.o)
                0x800792a8                mad_timer_add
 .text.reduce_rational
                0x800792dc       0x74 c:/devkitPro/libogc/lib/cube\libmad.a(timer.o)
 .text.scale_rational
                0x80079350       0xe0 c:/devkitPro/libogc/lib/cube\libmad.a(timer.o)
 .text.mad_timer_set
                0x80079430      0x1b8 c:/devkitPro/libogc/lib/cube\libmad.a(timer.o)
                0x80079430                mad_timer_set
 .text.mad_bit_init
                0x800795e8       0x18 c:/devkitPro/libogc/lib/cube\libmad.a(bit.o)
                0x800795e8                mad_bit_init
 .text.mad_bit_length
                0x80079600       0x2c c:/devkitPro/libogc/lib/cube\libmad.a(bit.o)
                0x80079600                mad_bit_length
 .text.mad_bit_nextbyte
                0x8007962c       0x20 c:/devkitPro/libogc/lib/cube\libmad.a(bit.o)
                0x8007962c                mad_bit_nextbyte
 .text.mad_bit_skip
                0x8007964c       0x60 c:/devkitPro/libogc/lib/cube\libmad.a(bit.o)
                0x8007964c                mad_bit_skip
 .text.mad_bit_read
                0x800796ac       0xe4 c:/devkitPro/libogc/lib/cube\libmad.a(bit.o)
                0x800796ac                mad_bit_read
 .text.mad_bit_crc
                0x80079790      0x1cc c:/devkitPro/libogc/lib/cube\libmad.a(bit.o)
                0x80079790                mad_bit_crc
 .text.__console_clear
                0x8007995c       0x60 c:/devkitPro/libogc/lib/cube\libogc.a(console.o)
 .text.__console_write
                0x800799bc      0x5f8 c:/devkitPro/libogc/lib/cube\libogc.a(console.o)
                0x800799bc                __console_write
 .text.__console_init
                0x80079fb4       0xf8 c:/devkitPro/libogc/lib/cube\libogc.a(console.o)
                0x80079fb4                __console_init
 .text.CON_Init
                0x8007a0ac        0x4 c:/devkitPro/libogc/lib/cube\libogc.a(console.o)
                0x8007a0ac                CON_Init
 .text.idle_func
                0x8007a0b0        0x4 c:/devkitPro/libogc/lib/cube\libogc.a(lwp.o)
 .text.__lwp_sysinit
                0x8007a0b4      0x118 c:/devkitPro/libogc/lib/cube\libogc.a(lwp.o)
                0x8007a0b4                __lwp_sysinit
 .text.LWP_ThreadSignal
                0x8007a1cc       0x74 c:/devkitPro/libogc/lib/cube\libogc.a(lwp.o)
                0x8007a1cc                LWP_ThreadSignal
 .text.LWP_ThreadBroadcast
                0x8007a240       0x88 c:/devkitPro/libogc/lib/cube\libogc.a(lwp.o)
                0x8007a240                LWP_ThreadBroadcast
 .text.LWP_ThreadSleep
                0x8007a2c8       0xd4 c:/devkitPro/libogc/lib/cube\libogc.a(lwp.o)
                0x8007a2c8                LWP_ThreadSleep
 .text.LWP_CloseQueue
                0x8007a39c       0xe8 c:/devkitPro/libogc/lib/cube\libogc.a(lwp.o)
                0x8007a39c                LWP_CloseQueue
 .text.LWP_InitQueue
                0x8007a484      0x124 c:/devkitPro/libogc/lib/cube\libogc.a(lwp.o)
                0x8007a484                LWP_InitQueue
 .text.LWP_CreateThread
                0x8007a5a8      0x1ac c:/devkitPro/libogc/lib/cube\libogc.a(lwp.o)
                0x8007a5a8                LWP_CreateThread
 .text.__lwp_objmgr_getisrdisable
                0x8007a754       0x50 c:/devkitPro/libogc/lib/cube\libogc.a(lwp_objmgr.o)
                0x8007a754                __lwp_objmgr_getisrdisable
 .text.__lwp_objmgr_getnoprotection
                0x8007a7a4       0x24 c:/devkitPro/libogc/lib/cube\libogc.a(lwp_objmgr.o)
                0x8007a7a4                __lwp_objmgr_getnoprotection
 .text.__lwp_objmgr_allocate
                0x8007a7c8       0x60 c:/devkitPro/libogc/lib/cube\libogc.a(lwp_objmgr.o)
                0x8007a7c8                __lwp_objmgr_allocate
 .text.__lwp_objmgr_free
                0x8007a828       0x4c c:/devkitPro/libogc/lib/cube\libogc.a(lwp_objmgr.o)
                0x8007a828                __lwp_objmgr_free
 .text.__lwp_objmgr_get
                0x8007a874       0x78 c:/devkitPro/libogc/lib/cube\libogc.a(lwp_objmgr.o)
                0x8007a874                __lwp_objmgr_get
 .text.__lwp_objmgr_initinfo
                0x8007a8ec      0x1b0 c:/devkitPro/libogc/lib/cube\libogc.a(lwp_objmgr.o)
                0x8007a8ec                __lwp_objmgr_initinfo
 .text.__lwp_heap_init
                0x8007aa9c       0x8c c:/devkitPro/libogc/lib/cube\libogc.a(lwp_heap.o)
                0x8007aa9c                __lwp_heap_init
 .text.__lwp_heap_free
                0x8007ab28      0x184 c:/devkitPro/libogc/lib/cube\libogc.a(lwp_heap.o)
                0x8007ab28                __lwp_heap_free
 .text.__lwp_heap_allocate
                0x8007acac      0x130 c:/devkitPro/libogc/lib/cube\libogc.a(lwp_heap.o)
                0x8007acac                __lwp_heap_allocate
 .text.__gettiming
                0x8007addc       0xb0 c:/devkitPro/libogc/lib/cube\libogc.a(video.o)
 .text.VIDEO_Configure
                0x8007ae8c      0x858 c:/devkitPro/libogc/lib/cube\libogc.a(video.o)
                0x8007ae8c                VIDEO_Configure
 .text.VIDEO_Flush
                0x8007b6e4      0x164 c:/devkitPro/libogc/lib/cube\libogc.a(video.o)
                0x8007b6e4                VIDEO_Flush
 .text.VIDEO_GetCurrentTvMode
                0x8007b848       0x60 c:/devkitPro/libogc/lib/cube\libogc.a(video.o)
                0x8007b848                VIDEO_GetCurrentTvMode
 .text.VIDEO_SetPostRetraceCallback
                0x8007b8a8       0x34 c:/devkitPro/libogc/lib/cube\libogc.a(video.o)
                0x8007b8a8                VIDEO_SetPostRetraceCallback
 .text.VIDEO_ClearFrameBuffer
                0x8007b8dc       0x3c c:/devkitPro/libogc/lib/cube\libogc.a(video.o)
                0x8007b8dc                VIDEO_ClearFrameBuffer
 .text.VIDEO_WaitVSync
                0x8007b918       0x7c c:/devkitPro/libogc/lib/cube\libogc.a(video.o)
                0x8007b918                VIDEO_WaitVSync
 .text.VIDEO_GetCurrentLine
                0x8007b994       0x94 c:/devkitPro/libogc/lib/cube\libogc.a(video.o)
                0x8007b994                VIDEO_GetCurrentLine
 .text.__VIRetraceHandler
                0x8007ba28      0x284 c:/devkitPro/libogc/lib/cube\libogc.a(video.o)
 .text.VIDEO_SetBlack
                0x8007bcac      0x144 c:/devkitPro/libogc/lib/cube\libogc.a(video.o)
                0x8007bcac                VIDEO_SetBlack
 .text.VIDEO_Init
                0x8007bdf0      0x6e0 c:/devkitPro/libogc/lib/cube\libogc.a(video.o)
                0x8007bdf0                VIDEO_Init
 .text.VIDEO_SetNextFramebuffer
                0x8007c4d0      0x220 c:/devkitPro/libogc/lib/cube\libogc.a(video.o)
                0x8007c4d0                VIDEO_SetNextFramebuffer
 .text.VIDEO_SetFramebuffer
                0x8007c6f0      0x32c c:/devkitPro/libogc/lib/cube\libogc.a(video.o)
                0x8007c6f0                VIDEO_SetFramebuffer
 .text.SPEC0_MakeStatus
                0x8007ca1c      0x120 c:/devkitPro/libogc/lib/cube\libogc.a(pad.o)
 .text.SPEC1_MakeStatus
                0x8007cb3c      0x120 c:/devkitPro/libogc/lib/cube\libogc.a(pad.o)
 .text.__pad_clampS8
                0x8007cc5c       0x38 c:/devkitPro/libogc/lib/cube\libogc.a(pad.o)
 .text.__pad_clampU8
                0x8007cc94       0x20 c:/devkitPro/libogc/lib/cube\libogc.a(pad.o)
 .text.SPEC2_MakeStatus
                0x8007ccb4      0x148 c:/devkitPro/libogc/lib/cube\libogc.a(pad.o)
 .text.__pad_samplinghandler
                0x8007cdfc        0x4 c:/devkitPro/libogc/lib/cube\libogc.a(pad.o)
 .text.__PADDisableRecalibration
                0x8007ce00       0x50 c:/devkitPro/libogc/lib/cube\libogc.a(pad.o)
                0x8007ce00                __PADDisableRecalibration
 .text.PAD_Recalibrate
                0x8007ce50       0x28 c:/devkitPro/libogc/lib/cube\libogc.a(pad.o)
                0x8007ce50                PAD_Recalibrate
 .text.PAD_SetSpec
                0x8007ce78       0x74 c:/devkitPro/libogc/lib/cube\libogc.a(pad.o)
                0x8007ce78                PAD_SetSpec
 .text.PAD_ButtonsDown
                0x8007ceec       0x34 c:/devkitPro/libogc/lib/cube\libogc.a(pad.o)
                0x8007ceec                PAD_ButtonsDown
 .text.PAD_ButtonsHeld
                0x8007cf20       0x34 c:/devkitPro/libogc/lib/cube\libogc.a(pad.o)
                0x8007cf20                PAD_ButtonsHeld
 .text.PAD_SubStickX
                0x8007cf54       0x38 c:/devkitPro/libogc/lib/cube\libogc.a(pad.o)
                0x8007cf54                PAD_SubStickX
 .text.PAD_SubStickY
                0x8007cf8c       0x38 c:/devkitPro/libogc/lib/cube\libogc.a(pad.o)
                0x8007cf8c                PAD_SubStickY
 .text.PAD_StickX
                0x8007cfc4       0x38 c:/devkitPro/libogc/lib/cube\libogc.a(pad.o)
                0x8007cfc4                PAD_StickX
 .text.PAD_StickY
                0x8007cffc       0x38 c:/devkitPro/libogc/lib/cube\libogc.a(pad.o)
                0x8007cffc                PAD_StickY
 .text.PAD_TriggerL
                0x8007d034       0x34 c:/devkitPro/libogc/lib/cube\libogc.a(pad.o)
                0x8007d034                PAD_TriggerL
 .text.PAD_TriggerR
                0x8007d068       0x34 c:/devkitPro/libogc/lib/cube\libogc.a(pad.o)
                0x8007d068                PAD_TriggerR
 .text.PAD_SetSamplingCallback
                0x8007d09c       0x6c c:/devkitPro/libogc/lib/cube\libogc.a(pad.o)
                0x8007d09c                PAD_SetSamplingCallback
 .text.__pad_updateorigin
                0x8007d108       0xa4 c:/devkitPro/libogc/lib/cube\libogc.a(pad.o)
 .text.PAD_ControlMotor
                0x8007d1ac       0xdc c:/devkitPro/libogc/lib/cube\libogc.a(pad.o)
                0x8007d1ac                PAD_ControlMotor
 .text.PAD_Sync
                0x8007d288       0x5c c:/devkitPro/libogc/lib/cube\libogc.a(pad.o)
                0x8007d288                PAD_Sync
 .text.__pad_onreset
                0x8007d2e4       0xa8 c:/devkitPro/libogc/lib/cube\libogc.a(pad.o)
 .text.__pad_doreset
                0x8007d38c       0x74 c:/devkitPro/libogc/lib/cube\libogc.a(pad.o)
 .text.PAD_Reset
                0x8007d400      0x100 c:/devkitPro/libogc/lib/cube\libogc.a(pad.o)
                0x8007d400                PAD_Reset
 .text.__pad_enable
                0x8007d500       0x68 c:/devkitPro/libogc/lib/cube\libogc.a(pad.o)
 .text.__pad_typeandstatuscallback
                0x8007d568      0x194 c:/devkitPro/libogc/lib/cube\libogc.a(pad.o)
 .text.__pad_origincallback
                0x8007d6fc       0x40 c:/devkitPro/libogc/lib/cube\libogc.a(pad.o)
 .text.__pad_probecallback
                0x8007d73c       0x54 c:/devkitPro/libogc/lib/cube\libogc.a(pad.o)
 .text.__pad_disable
                0x8007d790       0xb8 c:/devkitPro/libogc/lib/cube\libogc.a(pad.o)
 .text.PAD_Read
                0x8007d848      0x2e0 c:/devkitPro/libogc/lib/cube\libogc.a(pad.o)
                0x8007d848                PAD_Read
 .text.PAD_ScanPads
                0x8007db28      0x190 c:/devkitPro/libogc/lib/cube\libogc.a(pad.o)
                0x8007db28                PAD_ScanPads
 .text.__pad_receivecheckcallback
                0x8007dcb8       0xc0 c:/devkitPro/libogc/lib/cube\libogc.a(pad.o)
 .text.__pad_originupdatecallback
                0x8007dd78       0x88 c:/devkitPro/libogc/lib/cube\libogc.a(pad.o)
 .text.PAD_Init
                0x8007de00      0x100 c:/devkitPro/libogc/lib/cube\libogc.a(pad.o)
                0x8007de00                PAD_Init
 .text.__MEMInterruptHandler
                0x8007df00       0x14 c:/devkitPro/libogc/lib/cube\libogc.a(system.o)
 .text.__RSWDefaultHandler
                0x8007df14        0x4 c:/devkitPro/libogc/lib/cube\libogc.a(system.o)
 .text.__sram_sync
                0x8007df18        0xc c:/devkitPro/libogc/lib/cube\libogc.a(system.o)
 .text.__call_resetfuncs
                0x8007df24       0xb0 c:/devkitPro/libogc/lib/cube\libogc.a(system.o)
 .text.__locksram
                0x8007dfd4       0x54 c:/devkitPro/libogc/lib/cube\libogc.a(system.o)
 .text.__SYS_LockSram
                0x8007e028        0x8 c:/devkitPro/libogc/lib/cube\libogc.a(system.o)
                0x8007e028                __SYS_LockSram
 .text.__SYS_LockSramEx
                0x8007e030        0x8 c:/devkitPro/libogc/lib/cube\libogc.a(system.o)
                0x8007e030                __SYS_LockSramEx
 .text.__SYS_SyncSram
                0x8007e038        0x4 c:/devkitPro/libogc/lib/cube\libogc.a(system.o)
                0x8007e038                __SYS_SyncSram
 .text._V_EXPORTNAME
                0x8007e03c       0x24 c:/devkitPro/libogc/lib/cube\libogc.a(system.o)
                0x8007e03c                _V_EXPORTNAME
 .text.__SYS_InitCallbacks
                0x8007e060       0x14 c:/devkitPro/libogc/lib/cube\libogc.a(system.o)
                0x8007e060                __SYS_InitCallbacks
 .text.SYS_PreMain
                0x8007e074        0x4 c:/devkitPro/libogc/lib/cube\libogc.a(system.o)
                0x8007e074                SYS_PreMain
 .text.SYS_RegisterResetFunc
                0x8007e078       0x80 c:/devkitPro/libogc/lib/cube\libogc.a(system.o)
                0x8007e078                SYS_RegisterResetFunc
 .text.SYS_SetArena1Lo
                0x8007e0f8       0x2c c:/devkitPro/libogc/lib/cube\libogc.a(system.o)
                0x8007e0f8                SYS_SetArena1Lo
 .text.SYS_GetArena1Lo
                0x8007e124       0x2c c:/devkitPro/libogc/lib/cube\libogc.a(system.o)
                0x8007e124                SYS_GetArena1Lo
 .text.SYS_SetArena1Hi
                0x8007e150       0x2c c:/devkitPro/libogc/lib/cube\libogc.a(system.o)
                0x8007e150                SYS_SetArena1Hi
 .text.SYS_GetArena1Hi
                0x8007e17c       0x2c c:/devkitPro/libogc/lib/cube\libogc.a(system.o)
                0x8007e17c                SYS_GetArena1Hi
 .text.__mem_onreset
                0x8007e1a8       0x54 c:/devkitPro/libogc/lib/cube\libogc.a(system.o)
 .text.__sys_alarmhandler
                0x8007e1fc      0x104 c:/devkitPro/libogc/lib/cube\libogc.a(system.o)
 .text.SYS_AllocateFramebuffer
                0x8007e300       0x3c c:/devkitPro/libogc/lib/cube\libogc.a(system.o)
                0x8007e300                SYS_AllocateFramebuffer
 .text.__RSWHandler
                0x8007e33c       0xfc c:/devkitPro/libogc/lib/cube\libogc.a(system.o)
 .text.__sram_init
                0x8007e438      0x168 c:/devkitPro/libogc/lib/cube\libogc.a(system.o)
                0x8007e438                __sram_init
 .text.SYS_Init
                0x8007e5a0      0x614 c:/devkitPro/libogc/lib/cube\libogc.a(system.o)
                0x8007e5a0                SYS_Init
 .text.__sram_write
                0x8007ebb4      0x148 c:/devkitPro/libogc/lib/cube\libogc.a(system.o)
 .text.__unlocksram
                0x8007ecfc      0x12c c:/devkitPro/libogc/lib/cube\libogc.a(system.o)
 .text.__SYS_UnlockSramEx
                0x8007ee28        0x8 c:/devkitPro/libogc/lib/cube\libogc.a(system.o)
                0x8007ee28                __SYS_UnlockSramEx
 .text.SYS_GetWirelessID
                0x8007ee30       0x4c c:/devkitPro/libogc/lib/cube\libogc.a(system.o)
                0x8007ee30                SYS_GetWirelessID
 .text.SYS_SetWirelessID
                0x8007ee7c       0x60 c:/devkitPro/libogc/lib/cube\libogc.a(system.o)
                0x8007ee7c                SYS_SetWirelessID
 .text.__SYS_UnlockSram
                0x8007eedc        0x8 c:/devkitPro/libogc/lib/cube\libogc.a(system.o)
                0x8007eedc                __SYS_UnlockSram
 .text.__sram_writecallback
                0x8007eee4       0x58 c:/devkitPro/libogc/lib/cube\libogc.a(system.o)
 .text.SYS_ResetSystem
                0x8007ef3c      0x2b8 c:/devkitPro/libogc/lib/cube\libogc.a(system.o)
                0x8007ef3c                SYS_ResetSystem
 .text.SYS_CancelAlarm
                0x8007f1f4       0x88 c:/devkitPro/libogc/lib/cube\libogc.a(system.o)
                0x8007f1f4                SYS_CancelAlarm
 .text.SYS_CreateAlarm
                0x8007f27c      0x10c c:/devkitPro/libogc/lib/cube\libogc.a(system.o)
                0x8007f27c                SYS_CreateAlarm
 .text.SYS_SetAlarm
                0x8007f388      0x17c c:/devkitPro/libogc/lib/cube\libogc.a(system.o)
                0x8007f388                SYS_SetAlarm
 .text.__lwp_cond_init
                0x8007f504       0x30 c:/devkitPro/libogc/lib/cube\libogc.a(cond.o)
                0x8007f504                __lwp_cond_init
 .text.__AISHandler
                0x8007f534       0x54 c:/devkitPro/libogc/lib/cube\libogc.a(audio.o)
 .text.__AIDHandler
                0x8007f588       0xb4 c:/devkitPro/libogc/lib/cube\libogc.a(audio.o)
 .text.AUDIO_SetStreamVolLeft
                0x8007f63c       0x1c c:/devkitPro/libogc/lib/cube\libogc.a(audio.o)
                0x8007f63c                AUDIO_SetStreamVolLeft
 .text.AUDIO_GetStreamVolLeft
                0x8007f658       0x14 c:/devkitPro/libogc/lib/cube\libogc.a(audio.o)
                0x8007f658                AUDIO_GetStreamVolLeft
 .text.AUDIO_SetStreamVolRight
                0x8007f66c       0x20 c:/devkitPro/libogc/lib/cube\libogc.a(audio.o)
                0x8007f66c                AUDIO_SetStreamVolRight
 .text.AUDIO_GetStreamVolRight
                0x8007f68c       0x14 c:/devkitPro/libogc/lib/cube\libogc.a(audio.o)
                0x8007f68c                AUDIO_GetStreamVolRight
 .text.AUDIO_GetStreamSampleRate
                0x8007f6a0       0x14 c:/devkitPro/libogc/lib/cube\libogc.a(audio.o)
                0x8007f6a0                AUDIO_GetStreamSampleRate
 .text.AUDIO_RegisterDMACallback
                0x8007f6b4       0x34 c:/devkitPro/libogc/lib/cube\libogc.a(audio.o)
                0x8007f6b4                AUDIO_RegisterDMACallback
 .text.AUDIO_InitDMA
                0x8007f6e8       0x78 c:/devkitPro/libogc/lib/cube\libogc.a(audio.o)
                0x8007f6e8                AUDIO_InitDMA
 .text.AUDIO_StartDMA
                0x8007f760       0x18 c:/devkitPro/libogc/lib/cube\libogc.a(audio.o)
                0x8007f760                AUDIO_StartDMA
 .text.AUDIO_StopDMA
                0x8007f778       0x18 c:/devkitPro/libogc/lib/cube\libogc.a(audio.o)
                0x8007f778                AUDIO_StopDMA
 .text.AUDIO_GetDSPSampleRate
                0x8007f790       0x18 c:/devkitPro/libogc/lib/cube\libogc.a(audio.o)
                0x8007f790                AUDIO_GetDSPSampleRate
 .text.AUDIO_SetDSPSampleRate
                0x8007f7a8      0x124 c:/devkitPro/libogc/lib/cube\libogc.a(audio.o)
                0x8007f7a8                AUDIO_SetDSPSampleRate
 .text.AUDIO_GetStreamPlayState
                0x8007f8cc       0x14 c:/devkitPro/libogc/lib/cube\libogc.a(audio.o)
                0x8007f8cc                AUDIO_GetStreamPlayState
 .text.AUDIO_SetStreamPlayState
                0x8007f8e0      0x100 c:/devkitPro/libogc/lib/cube\libogc.a(audio.o)
                0x8007f8e0                AUDIO_SetStreamPlayState
 .text.AUDIO_Init
                0x8007f9e0      0x250 c:/devkitPro/libogc/lib/cube\libogc.a(audio.o)
                0x8007f9e0                AUDIO_Init
 .text.__decrementer_init
                0x8007fc30        0x4 c:/devkitPro/libogc/lib/cube\libogc.a(decrementer.o)
                0x8007fc30                __decrementer_init
 .text.c_decrementer_handler
                0x8007fc34       0x28 c:/devkitPro/libogc/lib/cube\libogc.a(decrementer.o)
                0x8007fc34                c_decrementer_handler
 .text.__lwp_mqbox_init
                0x8007fc5c       0x30 c:/devkitPro/libogc/lib/cube\libogc.a(message.o)
                0x8007fc5c                __lwp_mqbox_init
 .text.__card_checksum
                0x8007fc8c       0x8c c:/devkitPro/libogc/lib/cube\libogc.a(card.o)
 .text.__card_putcntrlblock
                0x8007fd18       0x54 c:/devkitPro/libogc/lib/cube\libogc.a(card.o)
 .text.__card_getcntrlblock
                0x8007fd6c       0x84 c:/devkitPro/libogc/lib/cube\libogc.a(card.o)
 .text.__card_iscard
                0x8007fdf0       0x88 c:/devkitPro/libogc/lib/cube\libogc.a(card.o)
 .text.__card_defaultapicallback
                0x8007fe78        0x4 c:/devkitPro/libogc/lib/cube\libogc.a(card.o)
 .text.exnor    0x8007fe7c       0x3c c:/devkitPro/libogc/lib/cube\libogc.a(card.o)
 .text.CARD_GetErrorCode
                0x8007feb8       0x28 c:/devkitPro/libogc/lib/cube\libogc.a(card.o)
                0x8007feb8                CARD_GetErrorCode
 .text.__card_sync
                0x8007fee0       0x84 c:/devkitPro/libogc/lib/cube\libogc.a(card.o)
 .text.__card_synccallback
                0x8007ff64       0x5c c:/devkitPro/libogc/lib/cube\libogc.a(card.o)
 .text.__setuptimeout
                0x8007ffc0       0xc4 c:/devkitPro/libogc/lib/cube\libogc.a(card.o)
 .text.__card_start
                0x80080084      0x128 c:/devkitPro/libogc/lib/cube\libogc.a(card.o)
 .text.__timeouthandler
                0x800801ac       0xa0 c:/devkitPro/libogc/lib/cube\libogc.a(card.o)
 .text.__card_txhandler
                0x8008024c       0xcc c:/devkitPro/libogc/lib/cube\libogc.a(card.o)
 .text.__card_unlockedhandler
                0x80080318       0xb0 c:/devkitPro/libogc/lib/cube\libogc.a(card.o)
 .text.__card_readsegment
                0x800803c8      0x140 c:/devkitPro/libogc/lib/cube\libogc.a(card.o)
 .text.__card_read
                0x80080508       0x44 c:/devkitPro/libogc/lib/cube\libogc.a(card.o)
 .text.__blockreadcallback
                0x8008054c       0xfc c:/devkitPro/libogc/lib/cube\libogc.a(card.o)
 .text.__retry  0x80080648      0x158 c:/devkitPro/libogc/lib/cube\libogc.a(card.o)
 .text.__unlocked_callback
                0x800807a0       0xf8 c:/devkitPro/libogc/lib/cube\libogc.a(card.o)
 .text.__card_readarrayunlock
                0x80080898      0x17c c:/devkitPro/libogc/lib/cube\libogc.a(card.o)
 .text.__card_dounmount
                0x80080a14       0xc8 c:/devkitPro/libogc/lib/cube\libogc.a(card.o)
 .text.CARD_Unmount
                0x80080adc       0x7c c:/devkitPro/libogc/lib/cube\libogc.a(card.o)
                0x80080adc                CARD_Unmount
 .text.__card_onreset
                0x80080b58       0x68 c:/devkitPro/libogc/lib/cube\libogc.a(card.o)
 .text.__card_clearstatus
                0x80080bc0       0xb4 c:/devkitPro/libogc/lib/cube\libogc.a(card.o)
 .text.__card_readstatus
                0x80080c74      0x100 c:/devkitPro/libogc/lib/cube\libogc.a(card.o)
 .text.__card_exihandler
                0x80080d74      0x118 c:/devkitPro/libogc/lib/cube\libogc.a(card.o)
 .text.__card_dummylen
                0x80080e8c       0xac c:/devkitPro/libogc/lib/cube\libogc.a(card.o)
 .text.__card_domount
                0x80080f38      0x6f8 c:/devkitPro/libogc/lib/cube\libogc.a(card.o)
 .text.CARD_MountAsync
                0x80081630      0x1b8 c:/devkitPro/libogc/lib/cube\libogc.a(card.o)
                0x80081630                CARD_MountAsync
 .text.CARD_Mount
                0x800817e8       0x54 c:/devkitPro/libogc/lib/cube\libogc.a(card.o)
                0x800817e8                CARD_Mount
 .text.__card_mountcallback
                0x8008183c      0x3b4 c:/devkitPro/libogc/lib/cube\libogc.a(card.o)
 .text.__dsp_donecallback
                0x80081bf0      0x1a8 c:/devkitPro/libogc/lib/cube\libogc.a(card.o)
 .text.__dsp_initcallback
                0x80081d98       0x78 c:/devkitPro/libogc/lib/cube\libogc.a(card.o)
 .text.__card_exthandler
                0x80081e10      0x114 c:/devkitPro/libogc/lib/cube\libogc.a(card.o)
 .text.CARD_Init
                0x80081f24      0x128 c:/devkitPro/libogc/lib/cube\libogc.a(card.o)
                0x80081f24                CARD_Init
 .text.__dsp_removetask
                0x8008204c       0x8c c:/devkitPro/libogc/lib/cube\libogc.a(dsp.o)
 .text.__dsp_inthandler
                0x800820d8       0x34 c:/devkitPro/libogc/lib/cube\libogc.a(dsp.o)
 .text.DSP_CheckMailTo
                0x8008210c       0x14 c:/devkitPro/libogc/lib/cube\libogc.a(dsp.o)
                0x8008210c                DSP_CheckMailTo
 .text.DSP_CheckMailFrom
                0x80082120       0x14 c:/devkitPro/libogc/lib/cube\libogc.a(dsp.o)
                0x80082120                DSP_CheckMailFrom
 .text.DSP_ReadMailFrom
                0x80082134       0x24 c:/devkitPro/libogc/lib/cube\libogc.a(dsp.o)
                0x80082134                DSP_ReadMailFrom
 .text.DSP_SendMailTo
                0x80082158       0x24 c:/devkitPro/libogc/lib/cube\libogc.a(dsp.o)
                0x80082158                DSP_SendMailTo
 .text.__dsp_exectask
                0x8008217c      0x19c c:/devkitPro/libogc/lib/cube\libogc.a(dsp.o)
 .text.__dsp_def_taskcb
                0x80082318      0x3dc c:/devkitPro/libogc/lib/cube\libogc.a(dsp.o)
 .text.DSP_AddTask
                0x800826f4      0x204 c:/devkitPro/libogc/lib/cube\libogc.a(dsp.o)
                0x800826f4                DSP_AddTask
 .text.DSP_Init
                0x800828f8       0xdc c:/devkitPro/libogc/lib/cube\libogc.a(dsp.o)
                0x800828f8                DSP_Init
 .text.__si_transfer
                0x800829d4      0x138 c:/devkitPro/libogc/lib/cube\libogc.a(si.o)
 .text.__si_alarmhandler
                0x80082b0c       0xb4 c:/devkitPro/libogc/lib/cube\libogc.a(si.o)
 .text.__si_calltypandstatuscallback
                0x80082bc0       0x8c c:/devkitPro/libogc/lib/cube\libogc.a(si.o)
 .text.SI_Busy  0x80082c4c       0x18 c:/devkitPro/libogc/lib/cube\libogc.a(si.o)
                0x80082c4c                SI_Busy
 .text.SI_IsChanBusy
                0x80082c64       0x38 c:/devkitPro/libogc/lib/cube\libogc.a(si.o)
                0x80082c64                SI_IsChanBusy
 .text.SI_SetXY
                0x80082c9c       0x54 c:/devkitPro/libogc/lib/cube\libogc.a(si.o)
                0x80082c9c                SI_SetXY
 .text.SI_DisablePolling
                0x80082cf0       0x48 c:/devkitPro/libogc/lib/cube\libogc.a(si.o)
                0x80082cf0                SI_DisablePolling
 .text.SI_GetStatus
                0x80082d38       0x68 c:/devkitPro/libogc/lib/cube\libogc.a(si.o)
                0x80082d38                SI_GetStatus
 .text.SI_GetResponseRaw
                0x80082da0       0x78 c:/devkitPro/libogc/lib/cube\libogc.a(si.o)
                0x80082da0                SI_GetResponseRaw
 .text.SI_GetResponse
                0x80082e18       0xa4 c:/devkitPro/libogc/lib/cube\libogc.a(si.o)
                0x80082e18                SI_GetResponse
 .text.SI_SetCommand
                0x80082ebc       0x10 c:/devkitPro/libogc/lib/cube\libogc.a(si.o)
                0x80082ebc                SI_SetCommand
 .text.SI_TransferCommands
                0x80082ecc       0x14 c:/devkitPro/libogc/lib/cube\libogc.a(si.o)
                0x80082ecc                SI_TransferCommands
 .text.SI_EnablePolling
                0x80082ee0       0x88 c:/devkitPro/libogc/lib/cube\libogc.a(si.o)
                0x80082ee0                SI_EnablePolling
 .text.SI_EnablePollingInterrupt
                0x80082f68       0x90 c:/devkitPro/libogc/lib/cube\libogc.a(si.o)
                0x80082f68                SI_EnablePollingInterrupt
 .text.SI_UnregisterPollingHandler
                0x80082ff8       0xc0 c:/devkitPro/libogc/lib/cube\libogc.a(si.o)
                0x80082ff8                SI_UnregisterPollingHandler
 .text.SI_RegisterPollingHandler
                0x800830b8       0xdc c:/devkitPro/libogc/lib/cube\libogc.a(si.o)
                0x800830b8                SI_RegisterPollingHandler
 .text.__si_completetransfer
                0x80083194      0x1a8 c:/devkitPro/libogc/lib/cube\libogc.a(si.o)
 .text.__si_transfernext
                0x8008333c       0xe0 c:/devkitPro/libogc/lib/cube\libogc.a(si.o)
 .text.SI_Transfer
                0x8008341c      0x1f4 c:/devkitPro/libogc/lib/cube\libogc.a(si.o)
                0x8008341c                SI_Transfer
 .text.SI_GetType
                0x80083610      0x1e4 c:/devkitPro/libogc/lib/cube\libogc.a(si.o)
                0x80083610                SI_GetType
 .text.SI_GetTypeAsync
                0x800837f4      0x10c c:/devkitPro/libogc/lib/cube\libogc.a(si.o)
                0x800837f4                SI_GetTypeAsync
 .text.__si_interrupthandler
                0x80083900      0x24c c:/devkitPro/libogc/lib/cube\libogc.a(si.o)
 .text.__si_gettypecallback
                0x80083b4c      0x268 c:/devkitPro/libogc/lib/cube\libogc.a(si.o)
 .text.SI_SetSamplingRate
                0x80083db4       0xe0 c:/devkitPro/libogc/lib/cube\libogc.a(si.o)
                0x80083db4                SI_SetSamplingRate
 .text.__si_init
                0x80083e94       0xf8 c:/devkitPro/libogc/lib/cube\libogc.a(si.o)
                0x80083e94                __si_init
 .text.SI_RefreshSamplingRate
                0x80083f8c        0xc c:/devkitPro/libogc/lib/cube\libogc.a(si.o)
                0x80083f8c                SI_RefreshSamplingRate
 .text.gettick  0x80083f98       0x10 c:/devkitPro/libogc/lib/cube\libogc.a(timesupp.o)
                0x80083f98                gettick
 .text.gettime  0x80083fa8       0x24 c:/devkitPro/libogc/lib/cube\libogc.a(timesupp.o)
                0x80083fa8                gettime
 .text.diff_usec
                0x80083fcc       0x9c c:/devkitPro/libogc/lib/cube\libogc.a(timesupp.o)
                0x80083fcc                diff_usec
 .text.udelay   0x80084068       0x64 c:/devkitPro/libogc/lib/cube\libogc.a(timesupp.o)
                0x80084068                udelay
 .text.__time_exi_unlock
                0x800840cc       0x2c c:/devkitPro/libogc/lib/cube\libogc.a(timesupp.o)
 .text.__getrtc
                0x800840f8      0x100 c:/devkitPro/libogc/lib/cube\libogc.a(timesupp.o)
 .text.time     0x800841f8      0x158 c:/devkitPro/libogc/lib/cube\libogc.a(timesupp.o)
                0x800841f8                time
 .text.__timesystem_init
                0x80084350       0x40 c:/devkitPro/libogc/lib/cube\libogc.a(timesupp.o)
                0x80084350                __timesystem_init
 .text.__libogc_lock_release
                0x80084390       0x48 c:/devkitPro/libogc/lib/cube\libogc.a(lock_supp.o)
                0x80084390                __libogc_lock_release
 .text.__libogc_lock_acquire
                0x800843d8       0x48 c:/devkitPro/libogc/lib/cube\libogc.a(lock_supp.o)
                0x800843d8                __libogc_lock_acquire
 .text.__libogc_lock_close
                0x80084420       0x5c c:/devkitPro/libogc/lib/cube\libogc.a(lock_supp.o)
                0x80084420                __libogc_lock_close
 .text.__libogc_lock_init
                0x8008447c       0x54 c:/devkitPro/libogc/lib/cube\libogc.a(lock_supp.o)
                0x8008447c                __libogc_lock_init
 .text.__libc_create_hook
                0x800844d0       0x10 c:/devkitPro/libogc/lib/cube\libogc.a(newlibc.o)
                0x800844d0                __libc_create_hook
 .text.__libc_init
                0x800844e0      0x178 c:/devkitPro/libogc/lib/cube\libogc.a(newlibc.o)
                0x800844e0                __libc_init
 .text.__libc_delete_hook
                0x80084658       0xbc c:/devkitPro/libogc/lib/cube\libogc.a(newlibc.o)
                0x80084658                __libc_delete_hook
 .text.__libc_start_hook
                0x80084714      0x1c0 c:/devkitPro/libogc/lib/cube\libogc.a(newlibc.o)
                0x80084714                __libc_start_hook
 .text.__libogc_sbrk_r
                0x800848d4       0xb8 c:/devkitPro/libogc/lib/cube\libogc.a(sbrk.o)
                0x800848d4                __libogc_sbrk_r
 .text.__libogc_malloc_lock
                0x8008498c      0x1a8 c:/devkitPro/libogc/lib/cube\libogc.a(malloc_lock.o)
                0x8008498c                __libogc_malloc_lock
 .text.__libogc_malloc_unlock
                0x80084b34       0x70 c:/devkitPro/libogc/lib/cube\libogc.a(malloc_lock.o)
                0x80084b34                __libogc_malloc_unlock
 .text.__memlock_init
                0x80084ba4       0x84 c:/devkitPro/libogc/lib/cube\libogc.a(malloc_lock.o)
                0x80084ba4                __memlock_init
 .text.__CheckARGV
                0x80084c28       0x9c c:/devkitPro/libogc/lib/cube\libogc.a(argv.o)
                0x80084c28                __CheckARGV
 .text.__lwp_priority_init
                0x80084cc4       0x34 c:/devkitPro/libogc/lib/cube\libogc.a(lwp_priority.o)
                0x80084cc4                __lwp_priority_init
 .text.__lwp_queue_initialize
                0x80084cf8       0x54 c:/devkitPro/libogc/lib/cube\libogc.a(lwp_queue.o)
                0x80084cf8                __lwp_queue_initialize
 .text.__lwp_queue_get
                0x80084d4c       0x54 c:/devkitPro/libogc/lib/cube\libogc.a(lwp_queue.o)
                0x80084d4c                __lwp_queue_get
 .text.__lwp_queue_append
                0x80084da0       0x3c c:/devkitPro/libogc/lib/cube\libogc.a(lwp_queue.o)
                0x80084da0                __lwp_queue_append
 .text.__lwp_threadqueue_extractpriority
                0x80084ddc      0x134 c:/devkitPro/libogc/lib/cube\libogc.a(lwp_threadq.o)
                0x80084ddc                __lwp_threadqueue_extractpriority
 .text.__lwp_threadqueue_extractfifo
                0x80084f10       0xb8 c:/devkitPro/libogc/lib/cube\libogc.a(lwp_threadq.o)
                0x80084f10                __lwp_threadqueue_extractfifo
 .text.__lwp_threadqueue_extract
                0x80084fc8       0x1c c:/devkitPro/libogc/lib/cube\libogc.a(lwp_threadq.o)
                0x80084fc8                __lwp_threadqueue_extract
 .text.__lwp_threadqueue_extractproxy
                0x80084fe4       0x3c c:/devkitPro/libogc/lib/cube\libogc.a(lwp_threadq.o)
                0x80084fe4                __lwp_threadqueue_extractproxy
 .text.__lwp_threadqueue_timeout
                0x80085020       0x8c c:/devkitPro/libogc/lib/cube\libogc.a(lwp_threadq.o)
 .text.__lwp_threadqueue_dequeuepriority
                0x800850ac      0x1b8 c:/devkitPro/libogc/lib/cube\libogc.a(lwp_threadq.o)
                0x800850ac                __lwp_threadqueue_dequeuepriority
 .text.__lwp_threadqueue_enqueuepriority
                0x80085264      0x310 c:/devkitPro/libogc/lib/cube\libogc.a(lwp_threadq.o)
                0x80085264                __lwp_threadqueue_enqueuepriority
 .text.__lwp_threadqueue_dequeuefifo
                0x80085574      0x108 c:/devkitPro/libogc/lib/cube\libogc.a(lwp_threadq.o)
                0x80085574                __lwp_threadqueue_dequeuefifo
 .text.__lwp_threadqueue_dequeue
                0x8008567c       0x24 c:/devkitPro/libogc/lib/cube\libogc.a(lwp_threadq.o)
                0x8008567c                __lwp_threadqueue_dequeue
 .text.__lwp_threadqueue_flush
                0x800856a0       0x4c c:/devkitPro/libogc/lib/cube\libogc.a(lwp_threadq.o)
                0x800856a0                __lwp_threadqueue_flush
 .text.__lwp_threadqueue_enqueuefifo
                0x800856ec       0xe8 c:/devkitPro/libogc/lib/cube\libogc.a(lwp_threadq.o)
                0x800856ec                __lwp_threadqueue_enqueuefifo
 .text.__lwp_threadqueue_enqueue
                0x800857d4      0x13c c:/devkitPro/libogc/lib/cube\libogc.a(lwp_threadq.o)
                0x800857d4                __lwp_threadqueue_enqueue
 .text.__lwp_threadqueue_init
                0x80085910       0x88 c:/devkitPro/libogc/lib/cube\libogc.a(lwp_threadq.o)
                0x80085910                __lwp_threadqueue_init
 .text.__lwp_isr_in_progress
                0x80085998        0x8 c:/devkitPro/libogc/lib/cube\libogc.a(lwp_threads.o)
                0x80085998                __lwp_isr_in_progress
 .text.__lwp_thread_setstate
                0x800859a0      0x128 c:/devkitPro/libogc/lib/cube\libogc.a(lwp_threads.o)
                0x800859a0                __lwp_thread_setstate
 .text.__lwp_thread_clearstate
                0x80085ac8       0xe4 c:/devkitPro/libogc/lib/cube\libogc.a(lwp_threads.o)
                0x80085ac8                __lwp_thread_clearstate
 .text.__lwp_thread_setpriority
                0x80085bac       0x5c c:/devkitPro/libogc/lib/cube\libogc.a(lwp_threads.o)
                0x80085bac                __lwp_thread_setpriority
 .text.__lwp_thread_settransient
                0x80085c08       0xa8 c:/devkitPro/libogc/lib/cube\libogc.a(lwp_threads.o)
                0x80085c08                __lwp_thread_settransient
 .text.__lwp_thread_loadenv
                0x80085cb0       0x78 c:/devkitPro/libogc/lib/cube\libogc.a(lwp_threads.o)
                0x80085cb0                __lwp_thread_loadenv
 .text.__lwp_thread_ready
                0x80085d28       0xd8 c:/devkitPro/libogc/lib/cube\libogc.a(lwp_threads.o)
                0x80085d28                __lwp_thread_ready
 .text.__thread_dispatch
                0x80085e00      0x110 c:/devkitPro/libogc/lib/cube\libogc.a(lwp_threads.o)
                0x80085e00                __thread_dispatch
 .text.__lwp_thread_start
                0x80085f10       0x64 c:/devkitPro/libogc/lib/cube\libogc.a(lwp_threads.o)
                0x80085f10                __lwp_thread_start
 .text.__lwp_thread_close
                0x80085f74      0x11c c:/devkitPro/libogc/lib/cube\libogc.a(lwp_threads.o)
                0x80085f74                __lwp_thread_close
 .text.__lwp_thread_init
                0x80086090      0x108 c:/devkitPro/libogc/lib/cube\libogc.a(lwp_threads.o)
                0x80086090                __lwp_thread_init
 .text.__thread_dispatch_fp
                0x80086198       0x60 c:/devkitPro/libogc/lib/cube\libogc.a(lwp_threads.o)
                0x80086198                __thread_dispatch_fp
 .text.__lwp_thread_stopmultitasking
                0x800861f8       0x50 c:/devkitPro/libogc/lib/cube\libogc.a(lwp_threads.o)
                0x800861f8                __lwp_thread_stopmultitasking
 .text.__lwp_thread_startmultitasking
                0x80086248       0x70 c:/devkitPro/libogc/lib/cube\libogc.a(lwp_threads.o)
                0x80086248                __lwp_thread_startmultitasking
 .text.__lwp_thread_closeall
                0x800862b8      0x10c c:/devkitPro/libogc/lib/cube\libogc.a(lwp_threads.o)
                0x800862b8                __lwp_thread_closeall
 .text.__lwp_thread_changepriority
                0x800863c4      0x188 c:/devkitPro/libogc/lib/cube\libogc.a(lwp_threads.o)
                0x800863c4                __lwp_thread_changepriority
 .text.__lwp_thread_coreinit
                0x8008654c       0x64 c:/devkitPro/libogc/lib/cube\libogc.a(lwp_threads.o)
                0x8008654c                __lwp_thread_coreinit
 .text.__lwp_thread_exit
                0x800865b0       0x70 c:/devkitPro/libogc/lib/cube\libogc.a(lwp_threads.o)
                0x800865b0                __lwp_thread_exit
 .text.__lwp_thread_handler
                0x80086620       0x7c c:/devkitPro/libogc/lib/cube\libogc.a(lwp_threads.o)
 .text.__lwp_stack_free
                0x8008669c       0x38 c:/devkitPro/libogc/lib/cube\libogc.a(lwp_stack.o)
                0x8008669c                __lwp_stack_free
 .text.__lwp_stack_allocate
                0x800866d4       0x6c c:/devkitPro/libogc/lib/cube\libogc.a(lwp_stack.o)
                0x800866d4                __lwp_stack_allocate
 .text.__lwp_mutex_flush
                0x80086740       0x20 c:/devkitPro/libogc/lib/cube\libogc.a(lwp_mutex.o)
                0x80086740                __lwp_mutex_flush
 .text.__lwp_mutex_initialize
                0x80086760       0xe8 c:/devkitPro/libogc/lib/cube\libogc.a(lwp_mutex.o)
                0x80086760                __lwp_mutex_initialize
 .text.__lwp_mutex_seize_irq_blocking
                0x80086848       0xec c:/devkitPro/libogc/lib/cube\libogc.a(lwp_mutex.o)
                0x80086848                __lwp_mutex_seize_irq_blocking
 .text.__lwp_mutex_surrender
                0x80086934      0x150 c:/devkitPro/libogc/lib/cube\libogc.a(lwp_mutex.o)
                0x80086934                __lwp_mutex_surrender
 .text.__lwp_watchdog_init
                0x80086a84       0x2c c:/devkitPro/libogc/lib/cube\libogc.a(lwp_watchdog.o)
                0x80086a84                __lwp_watchdog_init
 .text.__lwp_wd_settimer
                0x80086ab0       0xc0 c:/devkitPro/libogc/lib/cube\libogc.a(lwp_watchdog.o)
 .text.__lwp_wd_remove
                0x80086b70      0x118 c:/devkitPro/libogc/lib/cube\libogc.a(lwp_watchdog.o)
                0x80086b70                __lwp_wd_remove
 .text.__lwp_wd_insert
                0x80086c88      0x1d4 c:/devkitPro/libogc/lib/cube\libogc.a(lwp_watchdog.o)
                0x80086c88                __lwp_wd_insert
 .text.__lwp_wd_tickle
                0x80086e5c      0x104 c:/devkitPro/libogc/lib/cube\libogc.a(lwp_watchdog.o)
                0x80086e5c                __lwp_wd_tickle
 .text.__lwp_wkspace_init
                0x80086f60       0xb0 c:/devkitPro/libogc/lib/cube\libogc.a(lwp_wkspace.o)
                0x80086f60                __lwp_wkspace_init
 .text.__exception_sethandler
                0x80087010       0x14 c:/devkitPro/libogc/lib/cube\libogc.a(exception.o)
                0x80087010                __exception_sethandler
 .text.__libogc_exit
                0x80087024       0x38 c:/devkitPro/libogc/lib/cube\libogc.a(exception.o)
                0x80087024                __libogc_exit
 .text.c_default_exceptionhandler
                0x8008705c      0x3c0 c:/devkitPro/libogc/lib/cube\libogc.a(exception.o)
                0x8008705c                c_default_exceptionhandler
 .text.__exception_load
                0x8008741c       0xa4 c:/devkitPro/libogc/lib/cube\libogc.a(exception.o)
                0x8008741c                __exception_load
 .text.__exception_init
                0x800874c0       0xf4 c:/devkitPro/libogc/lib/cube\libogc.a(exception.o)
                0x800874c0                __exception_init
 .text.__systemcall_init
                0x800875b4       0x20 c:/devkitPro/libogc/lib/cube\libogc.a(exception.o)
                0x800875b4                __systemcall_init
 .text.c_irqdispatcher
                0x800875d4      0x2a0 c:/devkitPro/libogc/lib/cube\libogc.a(irq.o)
                0x800875d4                c_irqdispatcher
 .text.__SetInterrupts
                0x80087874      0x25c c:/devkitPro/libogc/lib/cube\libogc.a(irq.o)
 .text.__UnmaskIrq
                0x80087ad0       0x80 c:/devkitPro/libogc/lib/cube\libogc.a(irq.o)
                0x80087ad0                __UnmaskIrq
 .text.__MaskIrq
                0x80087b50       0x80 c:/devkitPro/libogc/lib/cube\libogc.a(irq.o)
                0x80087b50                __MaskIrq
 .text.IRQ_Request
                0x80087bd0       0x44 c:/devkitPro/libogc/lib/cube\libogc.a(irq.o)
                0x80087bd0                IRQ_Request
 .text.IRQ_GetHandler
                0x80087c14       0x34 c:/devkitPro/libogc/lib/cube\libogc.a(irq.o)
                0x80087c14                IRQ_GetHandler
 .text.__irq_init
                0x80087c48       0xac c:/devkitPro/libogc/lib/cube\libogc.a(irq.o)
                0x80087c48                __irq_init
 .text.__lwp_sema_init
                0x80087cf4       0x30 c:/devkitPro/libogc/lib/cube\libogc.a(semaphore.o)
                0x80087cf4                __lwp_sema_init
 .text.EXI_Sync
                0x80087d24       0xc4 c:/devkitPro/libogc/lib/cube\libogc.a(exi.o)
                0x80087d24                EXI_Sync
 .text.EXI_GetState
                0x80087de8       0x18 c:/devkitPro/libogc/lib/cube\libogc.a(exi.o)
                0x80087de8                EXI_GetState
 .text.__exi_irq_handler
                0x80087e00       0x74 c:/devkitPro/libogc/lib/cube\libogc.a(exi.o)
 .text.EXI_Detach
                0x80087e74       0x9c c:/devkitPro/libogc/lib/cube\libogc.a(exi.o)
                0x80087e74                EXI_Detach
 .text.__exi_probe
                0x80087f10      0x204 c:/devkitPro/libogc/lib/cube\libogc.a(exi.o)
 .text.EXI_Select
                0x80088114      0x190 c:/devkitPro/libogc/lib/cube\libogc.a(exi.o)
                0x80088114                EXI_Select
 .text.EXI_Imm  0x800882a4      0x18c c:/devkitPro/libogc/lib/cube\libogc.a(exi.o)
                0x800882a4                EXI_Imm
 .text.EXI_ImmEx
                0x80088430       0xd4 c:/devkitPro/libogc/lib/cube\libogc.a(exi.o)
                0x80088430                EXI_ImmEx
 .text.EXI_Deselect
                0x80088504      0x114 c:/devkitPro/libogc/lib/cube\libogc.a(exi.o)
                0x80088504                EXI_Deselect
 .text.__exi_attach
                0x80088618       0xf4 c:/devkitPro/libogc/lib/cube\libogc.a(exi.o)
 .text.EXI_Lock
                0x8008870c      0x1e8 c:/devkitPro/libogc/lib/cube\libogc.a(exi.o)
                0x8008870c                EXI_Lock
 .text.EXI_Dma  0x800888f4      0x144 c:/devkitPro/libogc/lib/cube\libogc.a(exi.o)
                0x800888f4                EXI_Dma
 .text.__ext_irq_handler
                0x80088a38       0xbc c:/devkitPro/libogc/lib/cube\libogc.a(exi.o)
 .text.__tc_irq_handler
                0x80088af4      0x11c c:/devkitPro/libogc/lib/cube\libogc.a(exi.o)
 .text.EXI_Unlock
                0x80088c10      0x238 c:/devkitPro/libogc/lib/cube\libogc.a(exi.o)
                0x80088c10                EXI_Unlock
 .text.EXI_GetID
                0x80088e48      0x238 c:/devkitPro/libogc/lib/cube\libogc.a(exi.o)
                0x80088e48                EXI_GetID
 .text.EXI_ProbeReset
                0x80089080       0x7c c:/devkitPro/libogc/lib/cube\libogc.a(exi.o)
                0x80089080                EXI_ProbeReset
 .text.__exi_init
                0x800890fc      0x18c c:/devkitPro/libogc/lib/cube\libogc.a(exi.o)
                0x800890fc                __exi_init
 .text.EXI_Probe
                0x80089288       0x84 c:/devkitPro/libogc/lib/cube\libogc.a(exi.o)
                0x80089288                EXI_Probe
 .text.EXI_Attach
                0x8008930c       0x90 c:/devkitPro/libogc/lib/cube\libogc.a(exi.o)
                0x8008930c                EXI_Attach
 .text.__unlocked_handler
                0x8008939c       0x28 c:/devkitPro/libogc/lib/cube\libogc.a(exi.o)
 .text.EXI_RegisterEXICallback
                0x800893c4      0x14c c:/devkitPro/libogc/lib/cube\libogc.a(exi.o)
                0x800893c4                EXI_RegisterEXICallback
 .text.__lwp_mutex_init
                0x80089510       0x30 c:/devkitPro/libogc/lib/cube\libogc.a(mutex.o)
                0x80089510                __lwp_mutex_init
 .text.LWP_MutexDestroy
                0x80089540      0x108 c:/devkitPro/libogc/lib/cube\libogc.a(mutex.o)
                0x80089540                LWP_MutexDestroy
 .text.LWP_MutexUnlock
                0x80089648       0x90 c:/devkitPro/libogc/lib/cube\libogc.a(mutex.o)
                0x80089648                LWP_MutexUnlock
 .text.__lwp_mutex_locksupp
                0x800896d8      0x204 c:/devkitPro/libogc/lib/cube\libogc.a(mutex.o)
 .text.LWP_MutexLock
                0x800898dc        0xc c:/devkitPro/libogc/lib/cube\libogc.a(mutex.o)
                0x800898dc                LWP_MutexLock
 .text.LWP_MutexInit
                0x800898e8      0x150 c:/devkitPro/libogc/lib/cube\libogc.a(mutex.o)
                0x800898e8                LWP_MutexInit
 .text.skip_atoi
                0x80089a38       0x4c c:/devkitPro/libogc/lib/cube\libogc.a(kprintf.o)
 .text.number   0x80089a84      0x2c0 c:/devkitPro/libogc/lib/cube\libogc.a(kprintf.o)
 .text.kvsprintf
                0x80089d44      0x684 c:/devkitPro/libogc/lib/cube\libogc.a(kprintf.o)
                0x80089d44                kvsprintf
 .text.kprintf  0x8008a3c8       0xac c:/devkitPro/libogc/lib/cube\libogc.a(kprintf.o)
                0x8008a3c8                kprintf
 *(.stub)
 *(.gnu.warning)
 *(.gnu.linkonce.t.*)
                0x8008a480                . = ALIGN (0x20)
 *fill*         0x8008a474        0xc 00000000

.fini           0x8008a480       0x20
 *(.fini)
 .fini          0x8008a480        0xc c:/devkitpro/devkitppc/bin/../lib/gcc/powerpc-gekko/4.2.3/ecrti.o
                0x8008a480                __fini
 .fini          0x8008a48c        0x4 c:/devkitpro/devkitppc/bin/../lib/gcc/powerpc-gekko/4.2.3/crtbegin.o
 .fini          0x8008a490       0x10 c:/devkitpro/devkitppc/bin/../lib/gcc/powerpc-gekko/4.2.3/ecrtn.o
                0x8008a4a0                . = ALIGN (0x20)
                0x8008a4a0                PROVIDE (__etext, .)
                0x8008a4a0                PROVIDE (_etext, .)
                0x8008a4a0                PROVIDE (etext, .)
                0x000873a0                text_mem_size = (. - text_mem_start)
                0x8008a4a0                data_mem_start = .

.rodata         0x8008a4a0   0x397064
 *(.rodata)
 .rodata        0x8008a4a0     0x7044 fontface.o
                0x800914e0                fontsize
                0x8008a4a0                fontface
 *fill*         0x800914e4       0x1c 00
 .rodata        0x80091500   0x359f0a mp3.o
                0x80091504                mp3data
                0x80091500                mp3length
 *fill*         0x803eb40a       0x16 00
 .rodata        0x803eb420     0xfe3b picture.o
                0x803eb424                picdata
                0x803eb420                piclength
 *fill*         0x803fb25b        0x1 00
 .rodata        0x803fb25c       0x24 c:/devkitPro/libogc/lib/cube\libogc.a(newlibc.o)
 .rodata        0x803fb280       0x4c c:/devkitpro/devkitppc/bin/../lib/gcc/powerpc-gekko/4.2.3/../../../../powerpc-gekko/lib\libfreetype.a(ftinit.o)
 .rodata        0x803fb2cc      0x100 c:/devkitpro/devkitppc/bin/../lib/gcc/powerpc-gekko/4.2.3/../../../../powerpc-gekko/lib\libfreetype.a(ftbase.o)
 .rodata        0x803fb3cc      0x108 c:/devkitpro/devkitppc/bin/../lib/gcc/powerpc-gekko/4.2.3/../../../../powerpc-gekko/lib\libfreetype.a(truetype.o)
                0x803fb3cc                tt_driver_class
 .rodata        0x803fb4d4      0x5d8 c:/devkitpro/devkitppc/bin/../lib/gcc/powerpc-gekko/4.2.3/../../../../powerpc-gekko/lib\libfreetype.a(type1.o)
                0x803fb4d4                t1_driver_class
 .rodata        0x803fbaac     0x1094 c:/devkitpro/devkitppc/bin/../lib/gcc/powerpc-gekko/4.2.3/../../../../powerpc-gekko/lib\libfreetype.a(cff.o)
                0x803fbaac                cff_cmap_unicode_class_rec
                0x803fbad4                cff_driver_class
                0x803fbac0                cff_cmap_encoding_class_rec
 .rodata        0x803fcb40      0x6b8 c:/devkitpro/devkitppc/bin/../lib/gcc/powerpc-gekko/4.2.3/../../../../powerpc-gekko/lib\libfreetype.a(type1cid.o)
                0x803fcb40                t1cid_driver_class
 .rodata        0x803fd1f8      0x174 c:/devkitpro/devkitppc/bin/../lib/gcc/powerpc-gekko/4.2.3/../../../../powerpc-gekko/lib\libfreetype.a(pfr.o)
                0x803fd1f8                pfr_driver_class
                0x803fd260                pfr_metrics_service_rec
                0x803fd26c                pfr_cmap_class_rec
 .rodata        0x803fd36c      0x308 c:/devkitpro/devkitppc/bin/../lib/gcc/powerpc-gekko/4.2.3/../../../../powerpc-gekko/lib\libfreetype.a(type42.o)
                0x803fd36c                t42_driver_class
 .rodata        0x803fd674      0x15c c:/devkitpro/devkitppc/bin/../lib/gcc/powerpc-gekko/4.2.3/../../../../powerpc-gekko/lib\libfreetype.a(winfnt.o)
                0x803fd674                winfnt_driver_class
 .rodata        0x803fd7d0      0x1b0 c:/devkitpro/devkitppc/bin/../lib/gcc/powerpc-gekko/4.2.3/../../../../powerpc-gekko/lib\libfreetype.a(pcf.o)
                0x803fd7d0                pcf_driver_class
                0x803fd838                pcf_cmap_class
 .rodata        0x803fd980      0x780 c:/devkitpro/devkitppc/bin/../lib/gcc/powerpc-gekko/4.2.3/../../../../powerpc-gekko/lib\libfreetype.a(bdf.o)
                0x803fd9e8                bdf_cmap_class
                0x803fd980                bdf_driver_class
 .rodata        0x803fe100      0x634 c:/devkitpro/devkitppc/bin/../lib/gcc/powerpc-gekko/4.2.3/../../../../powerpc-gekko/lib\libfreetype.a(sfnt.o)
                0x803fe224                tt_cmap6_class_rec
                0x803fe264                tt_cmap2_class_rec
                0x803fe1c4                tt_cmap12_class_rec
                0x803fe244                tt_cmap4_class_rec
                0x803fe204                tt_cmap8_class_rec
                0x803fe1e4                tt_cmap10_class_rec
                0x803fe100                sfnt_module_class
                0x803fe284                tt_cmap0_class_rec
 .rodata        0x803fe734      0x298 c:/devkitpro/devkitppc/bin/../lib/gcc/powerpc-gekko/4.2.3/../../../../powerpc-gekko/lib\libfreetype.a(autofit.o)
                0x803fe768                af_cjk_script_class
                0x803fe758                af_autofitter_service
                0x803fe838                af_latin_script_class
                0x803fe734                autofit_module_class
                0x803fe870                af_dummy_script_class
 .rodata        0x803fe9cc       0x30 c:/devkitpro/devkitppc/bin/../lib/gcc/powerpc-gekko/4.2.3/../../../../powerpc-gekko/lib\libfreetype.a(pshinter.o)
                0x803fe9cc                pshinter_module_class
 .rodata        0x803fe9fc       0x90 c:/devkitpro/devkitppc/bin/../lib/gcc/powerpc-gekko/4.2.3/../../../../powerpc-gekko/lib\libfreetype.a(raster.o)
                0x803fea38                ft_raster1_renderer_class
                0x803fe9fc                ft_raster5_renderer_class
                0x803fea74                ft_standard_raster
 .rodata        0x803fea8c       0xe4 c:/devkitpro/devkitppc/bin/../lib/gcc/powerpc-gekko/4.2.3/../../../../powerpc-gekko/lib\libfreetype.a(smooth.o)
                0x803feac8                ft_smooth_lcd_renderer_class
                0x803fea8c                ft_smooth_lcdv_renderer_class
                0x803feb40                ft_grays_raster
                0x803feb04                ft_smooth_renderer_class
 .rodata        0x803feb70     0x1400 c:/devkitpro/devkitppc/bin/../lib/gcc/powerpc-gekko/4.2.3/../../../../powerpc-gekko/lib\libfreetype.a(ftgzip.o)
 .rodata        0x803fff70      0x724 c:/devkitpro/devkitppc/bin/../lib/gcc/powerpc-gekko/4.2.3/../../../../powerpc-gekko/lib\libfreetype.a(psaux.o)
                0x80400028                t1_builder_funcs
                0x80400048                ps_parser_funcs
                0x8040001c                t1_decoder_funcs
                0x8040007c                ps_table_funcs
                0x80400000                t1_cmap_classes
                0x803fffac                t1_cmap_standard_class_rec
                0x803fff70                t1_cmap_unicode_class_rec
                0x803fff98                t1_cmap_expert_class_rec
                0x803fffc0                psaux_module_class
                0x803fff84                t1_cmap_custom_class_rec
                0x80400010                afm_parser_funcs
 .rodata        0x80400694     0xede0 c:/devkitpro/devkitppc/bin/../lib/gcc/powerpc-gekko/4.2.3/../../../../powerpc-gekko/lib\libfreetype.a(psnames.o)
                0x80400694                psnames_module_class
 .rodata        0x8040f474       0x40 c:/devkitpro/devkitppc/bin/../lib/gcc/powerpc-gekko/4.2.3/../../../../powerpc-gekko/lib\libfreetype.a(ftglyph.o)
                0x8040f474                ft_outline_glyph_class
                0x8040f494                ft_bitmap_glyph_class
 .rodata        0x8040f4b4       0x50 c:/devkitpro/devkitppc/bin/../lib/gcc/powerpc-gekko/4.2.3/../../../../powerpc-gekko/lib\libfreetype.a(ftbitmap.o)
 .rodata        0x8040f504       0x2c c:/devkitpro/devkitppc/bin/../lib/gcc/powerpc-gekko/4.2.3/../../../../powerpc-gekko/lib\libjpeg.a(jdapimin.o)
 .rodata        0x8040f530       0x18 c:/devkitpro/devkitppc/bin/../lib/gcc/powerpc-gekko/4.2.3/../../../../powerpc-gekko/lib\libjpeg.a(jdmaster.o)
 .rodata        0x8040f548       0x80 c:/devkitpro/devkitppc/bin/../lib/gcc/powerpc-gekko/4.2.3/../../../../powerpc-gekko/lib\libjpeg.a(jdphuff.o)
 .rodata        0x8040f5c8      0x1f4 c:/devkitpro/devkitppc/bin/../lib/gcc/powerpc-gekko/4.2.3/../../../../powerpc-gekko/lib\libjpeg.a(jerror.o)
                0x8040f5c8                jpeg_std_message_table
 .rodata        0x8040f7bc       0x10 c:/devkitpro/devkitppc/bin/../lib/gcc/powerpc-gekko/4.2.3/../../../../powerpc-gekko/lib\libjpeg.a(jmemmgr.o)
 .rodata        0x8040f7cc      0x10c c:/devkitpro/devkitppc/bin/../lib/gcc/powerpc-gekko/4.2.3/../../../../powerpc-gekko/lib\libjpeg.a(jquant1.o)
 .rodata        0x8040f8d8      0x140 c:/devkitpro/devkitppc/bin/../lib/gcc/powerpc-gekko/4.2.3/../../../../powerpc-gekko/lib\libjpeg.a(jutils.o)
                0x8040f8d8                jpeg_natural_order
 .rodata        0x8040fa18       0x18 c:/devkitpro/devkitppc/bin/../lib/gcc/powerpc-gekko/4.2.3/../../../../powerpc-gekko/lib\libjpeg.a(jdcolor.o)
 .rodata        0x8040fa30       0xc0 c:/devkitpro/devkitppc/bin/../lib/gcc/powerpc-gekko/4.2.3/../../../../powerpc-gekko/lib\libjpeg.a(jddctmgr.o)
 .rodata        0x8040faf0       0x80 c:/devkitpro/devkitppc/bin/../lib/gcc/powerpc-gekko/4.2.3/../../../../powerpc-gekko/lib\libjpeg.a(jdhuff.o)
 .rodata        0x8040fb70       0x50 c:/devkitpro/devkitppc/bin/../lib/gcc/powerpc-gekko/4.2.3/../../../../powerpc-gekko/lib\libsysbase.a(iosupport.o)
                0x8040fb70                dotab_stdnull
 .rodata        0x8040fbc0      0x101 c:/devkitpro/devkitppc/bin/../lib/gcc/powerpc-gekko/4.2.3/../../../../powerpc-gekko/lib\libc.a(lib_a-ctype_.o)
                0x8040fbc0                _ctype_
 *fill*         0x8040fcc1        0x3 00
 .rodata        0x8040fcc4       0x68 c:/devkitpro/devkitppc/bin/../lib/gcc/powerpc-gekko/4.2.3/../../../../powerpc-gekko/lib\libc.a(lib_a-mktm_r.o)
 .rodata        0x8040fd2c      0x184 c:/devkitpro/devkitppc/bin/../lib/gcc/powerpc-gekko/4.2.3/../../../../powerpc-gekko/lib\libc.a(lib_a-vfprintf.o)
 .rodata        0x8040feb0      0x48e c:/devkitpro/devkitppc/bin/../lib/gcc/powerpc-gekko/4.2.3/../../../../powerpc-gekko/lib\libc.a(lib_a-vfscanf.o)
 .rodata        0x8041033e       0x39 c:/devkitpro/devkitppc/bin/../lib/gcc/powerpc-gekko/4.2.3/../../../../powerpc-gekko/lib\libc.a(lib_a-asctime_r.o)
 *fill*         0x80410377        0x1 00
 .rodata        0x80410378       0x18 c:/devkitpro/devkitppc/bin/../lib/gcc/powerpc-gekko/4.2.3/../../../../powerpc-gekko/lib\libc.a(lib_a-dtoa.o)
 .rodata        0x80410390     0x34ee c:/devkitpro/devkitppc/bin/../lib/gcc/powerpc-gekko/4.2.3/../../../../powerpc-gekko/lib\libc.a(lib_a-jp2uc.o)
 *fill*         0x8041387e        0x2 00
 .rodata        0x80413880       0xb8 c:/devkitpro/devkitppc/bin/../lib/gcc/powerpc-gekko/4.2.3/../../../../powerpc-gekko/lib\libc.a(lib_a-locale.o)
 .rodata        0x80413938       0xa8 c:/devkitpro/devkitppc/bin/../lib/gcc/powerpc-gekko/4.2.3/../../../../powerpc-gekko/lib\libc.a(lib_a-mbtowc_r.o)
 .rodata        0x804139e0      0x128 c:/devkitpro/devkitppc/bin/../lib/gcc/powerpc-gekko/4.2.3/../../../../powerpc-gekko/lib\libc.a(lib_a-mprec.o)
                0x80413ae0                __mprec_tinytens
                0x804139e0                __mprec_tens
                0x80413ab8                __mprec_bigtens
 .rodata        0x80413b08      0x100 c:/devkitpro/devkitppc/bin/../lib/gcc/powerpc-gekko/4.2.3/../../../../powerpc-gekko/lib\libc.a(lib_a-strtod.o)
 .rodata        0x80413c08      0x184 c:/devkitpro/devkitppc/bin/../lib/gcc/powerpc-gekko/4.2.3/../../../../powerpc-gekko/lib\libc.a(lib_a-vfiprintf.o)
 *(.rodata.*)
 .rodata.cst4   0x80413d8c        0x4 freetype.o
 .rodata.str1.4
                0x80413d90       0xdb freetype.o
 *fill*         0x80413e6b        0x1 00
 .rodata.cst4   0x80413e6c       0x78 template.o
 .rodata.str1.4
                0x80413ee4      0x1be template.o
                                0x1ce (size before relaxing)
 *fill*         0x804140a2        0x2 00
 .rodata.cst4   0x804140a4       0x20 c:/devkitPro/libogc/lib/cube\libmad.a(mp3player.o)
 *fill*         0x804140c4        0x4 00
 .rodata.cst8   0x804140c8        0x8 c:/devkitPro/libogc/lib/cube\libmad.a(mp3player.o)
 .rodata.bitrate_table
                0x804140d0      0x12c c:/devkitPro/libogc/lib/cube\libmad.a(frame.o)
 .rodata.samplerate_table
                0x804141fc        0xc c:/devkitPro/libogc/lib/cube\libmad.a(frame.o)
 .rodata.decoder_table
                0x80414208        0xc c:/devkitPro/libogc/lib/cube\libmad.a(frame.o)
 .rodata.offset_table
                0x80414214       0x5a c:/devkitPro/libogc/lib/cube\libmad.a(layer12.o)
 *fill*         0x8041426e        0x2 00
 .rodata.linear_table
                0x80414270       0x38 c:/devkitPro/libogc/lib/cube\libmad.a(layer12.o)
 .rodata.qc_table
                0x804142a8       0xcc c:/devkitPro/libogc/lib/cube\libmad.a(layer12.o)
 .rodata.sf_table
                0x80414374      0x100 c:/devkitPro/libogc/lib/cube\libmad.a(layer12.o)
 .rodata.bitalloc_table
                0x80414474       0x20 c:/devkitPro/libogc/lib/cube\libmad.a(layer12.o)
 .rodata.sbquant_table
                0x80414494       0xb4 c:/devkitPro/libogc/lib/cube\libmad.a(layer12.o)
 .rodata.sfb_8000_mixed
                0x80414548       0x27 c:/devkitPro/libogc/lib/cube\libmad.a(layer3.o)
 *fill*         0x8041456f        0x1 00
 .rodata.sfb_8000_short
                0x80414570       0x27 c:/devkitPro/libogc/lib/cube\libmad.a(layer3.o)
 *fill*         0x80414597        0x1 00
 .rodata.sfb_32000_short
                0x80414598       0x27 c:/devkitPro/libogc/lib/cube\libmad.a(layer3.o)
 *fill*         0x804145bf        0x1 00
 .rodata.rq_table
                0x804145c0     0x803c c:/devkitPro/libogc/lib/cube\libmad.a(layer3.o)
 .rodata.root_table
                0x8041c5fc       0x1c c:/devkitPro/libogc/lib/cube\libmad.a(layer3.o)
 .rodata.sfb_44100_mixed
                0x8041c618       0x26 c:/devkitPro/libogc/lib/cube\libmad.a(layer3.o)
 *fill*         0x8041c63e        0x2 00
 .rodata.is_lsf_table
                0x8041c640       0x78 c:/devkitPro/libogc/lib/cube\libmad.a(layer3.o)
 .rodata.sflen_table
                0x8041c6b8       0x20 c:/devkitPro/libogc/lib/cube\libmad.a(layer3.o)
 .rodata.sfb_16000_mixed
                0x8041c6d8       0x24 c:/devkitPro/libogc/lib/cube\libmad.a(layer3.o)
 .rodata.ca     0x8041c6fc       0x20 c:/devkitPro/libogc/lib/cube\libmad.a(layer3.o)
 .rodata.sfb_44100_short
                0x8041c71c       0x27 c:/devkitPro/libogc/lib/cube\libmad.a(layer3.o)
 *fill*         0x8041c743        0x1 00
 .rodata.sfb_44100_long
                0x8041c744       0x16 c:/devkitPro/libogc/lib/cube\libmad.a(layer3.o)
 *fill*         0x8041c75a        0x2 00
 .rodata.sfb_24000_long
                0x8041c75c       0x16 c:/devkitPro/libogc/lib/cube\libmad.a(layer3.o)
 *fill*         0x8041c772        0x2 00
 .rodata.sfb_48000_mixed
                0x8041c774       0x26 c:/devkitPro/libogc/lib/cube\libmad.a(layer3.o)
 *fill*         0x8041c79a        0x2 00
 .rodata.sfb_8000_long
                0x8041c79c       0x16 c:/devkitPro/libogc/lib/cube\libmad.a(layer3.o)
 *fill*         0x8041c7b2        0x2 00
 .rodata.sfb_24000_mixed
                0x8041c7b4       0x24 c:/devkitPro/libogc/lib/cube\libmad.a(layer3.o)
 .rodata.sfb_22050_mixed
                0x8041c7d8       0x24 c:/devkitPro/libogc/lib/cube\libmad.a(layer3.o)
 .rodata.sfb_48000_long
                0x8041c7fc       0x16 c:/devkitPro/libogc/lib/cube\libmad.a(layer3.o)
 *fill*         0x8041c812        0x2 00
 .rodata.cs     0x8041c814       0x20 c:/devkitPro/libogc/lib/cube\libmad.a(layer3.o)
 .rodata.imdct_s
                0x8041c834       0x90 c:/devkitPro/libogc/lib/cube\libmad.a(layer3.o)
 .rodata.pretab
                0x8041c8c4       0x16 c:/devkitPro/libogc/lib/cube\libmad.a(layer3.o)
 *fill*         0x8041c8da        0x2 00
 .rodata.sfb_22050_long
                0x8041c8dc       0x16 c:/devkitPro/libogc/lib/cube\libmad.a(layer3.o)
 *fill*         0x8041c8f2        0x2 00
 .rodata.sfb_48000_short
                0x8041c8f4       0x27 c:/devkitPro/libogc/lib/cube\libmad.a(layer3.o)
 *fill*         0x8041c91b        0x1 00
 .rodata.sfb_22050_short
                0x8041c91c       0x27 c:/devkitPro/libogc/lib/cube\libmad.a(layer3.o)
 *fill*         0x8041c943        0x1 00
 .rodata.is_table
                0x8041c944       0x1c c:/devkitPro/libogc/lib/cube\libmad.a(layer3.o)
 .rodata.sfbwidth_table
                0x8041c960       0x6c c:/devkitPro/libogc/lib/cube\libmad.a(layer3.o)
 .rodata.window_l
                0x8041c9cc       0x90 c:/devkitPro/libogc/lib/cube\libmad.a(layer3.o)
 .rodata.sfb_24000_short
                0x8041ca5c       0x27 c:/devkitPro/libogc/lib/cube\libmad.a(layer3.o)
 *fill*         0x8041ca83        0x1 00
 .rodata.sfb_32000_long
                0x8041ca84       0x16 c:/devkitPro/libogc/lib/cube\libmad.a(layer3.o)
 *fill*         0x8041ca9a        0x2 00
 .rodata.sfb_32000_mixed
                0x8041ca9c       0x26 c:/devkitPro/libogc/lib/cube\libmad.a(layer3.o)
 *fill*         0x8041cac2        0x2 00
 .rodata.window_s
                0x8041cac4       0x30 c:/devkitPro/libogc/lib/cube\libmad.a(layer3.o)
 .rodata.nsfb_table
                0x8041caf4       0x48 c:/devkitPro/libogc/lib/cube\libmad.a(layer3.o)
 .rodata.sfb_16000_short
                0x8041cb3c       0x27 c:/devkitPro/libogc/lib/cube\libmad.a(layer3.o)
 *fill*         0x8041cb63        0x1 00
 .rodata.cst4   0x8041cb64        0x4 c:/devkitPro/libogc/lib/cube\libmad.a(synth.o)
 .rodata.D      0x8041cb68      0x880 c:/devkitPro/libogc/lib/cube\libmad.a(synth.o)
 .rodata.crc_table
                0x8041d3e8      0x200 c:/devkitPro/libogc/lib/cube\libmad.a(bit.o)
 .rodata.hufftab24
                0x8041d5e8      0x304 c:/devkitPro/libogc/lib/cube\libmad.a(huffman.o)
 .rodata.hufftab10
                0x8041d8ec       0xcc c:/devkitPro/libogc/lib/cube\libmad.a(huffman.o)
 .rodata.hufftab11
                0x8041d9b8       0xd0 c:/devkitPro/libogc/lib/cube\libmad.a(huffman.o)
 .rodata.hufftab1
                0x8041da88       0x10 c:/devkitPro/libogc/lib/cube\libmad.a(huffman.o)
 .rodata.hufftab2
                0x8041da98       0x20 c:/devkitPro/libogc/lib/cube\libmad.a(huffman.o)
 .rodata.hufftab3
                0x8041dab8       0x20 c:/devkitPro/libogc/lib/cube\libmad.a(huffman.o)
 .rodata.hufftab15
                0x8041dad8      0x2f8 c:/devkitPro/libogc/lib/cube\libmad.a(huffman.o)
 .rodata.hufftab5
                0x8041ddd0       0x34 c:/devkitPro/libogc/lib/cube\libmad.a(huffman.o)
 .rodata.hufftab6
                0x8041de04       0x38 c:/devkitPro/libogc/lib/cube\libmad.a(huffman.o)
 .rodata.hufftab7
                0x8041de3c       0x80 c:/devkitPro/libogc/lib/cube\libmad.a(huffman.o)
 .rodata.mad_huff_pair_table
                0x8041debc      0x100 c:/devkitPro/libogc/lib/cube\libmad.a(huffman.o)
                0x8041debc                mad_huff_pair_table
 .rodata.hufftab9
                0x8041dfbc       0x6c c:/devkitPro/libogc/lib/cube\libmad.a(huffman.o)
 .rodata.hufftab12
                0x8041e028       0xc0 c:/devkitPro/libogc/lib/cube\libmad.a(huffman.o)
 .rodata.hufftab13
                0x8041e0e8      0x31c c:/devkitPro/libogc/lib/cube\libmad.a(huffman.o)
 .rodata.hufftabA
                0x8041e404       0x38 c:/devkitPro/libogc/lib/cube\libmad.a(huffman.o)
 .rodata.hufftabB
                0x8041e43c       0x20 c:/devkitPro/libogc/lib/cube\libmad.a(huffman.o)
 .rodata.hufftab16
                0x8041e45c      0x324 c:/devkitPro/libogc/lib/cube\libmad.a(huffman.o)
 .rodata.hufftab8
                0x8041e780       0x84 c:/devkitPro/libogc/lib/cube\libmad.a(huffman.o)
 .rodata.cst4   0x8041e804        0x8 c:/devkitpro/devkitppc/bin/../lib/gcc/powerpc-gekko/4.2.3/../../../../powerpc-gekko/lib\libm.a(lib_a-s_sine.o)
 *fill*         0x8041e80c        0x4 00
 .rodata.cst8   0x8041e810       0x60 c:/devkitpro/devkitppc/bin/../lib/gcc/powerpc-gekko/4.2.3/../../../../powerpc-gekko/lib\libm.a(lib_a-s_sine.o)
 .rodata.cst8   0x00000000        0x8 c:/devkitpro/devkitppc/bin/../lib/gcc/powerpc-gekko/4.2.3/../../../../powerpc-gekko/lib\libm.a(lib_a-s_fabs.o)
 .rodata.cst8   0x00000000        0x8 c:/devkitpro/devkitppc/bin/../lib/gcc/powerpc-gekko/4.2.3/../../../../powerpc-gekko/lib\libm.a(lib_a-s_numtest.o)
 .rodata.__console_write
                0x8041e870       0xec c:/devkitPro/libogc/lib/cube\libogc.a(console.o)
 .rodata.color_table
                0x8041e95c       0x40 c:/devkitPro/libogc/lib/cube\libogc.a(console.o)
                0x8041e95c                color_table
 .rodata.dotab_stdout
                0x8041e99c       0x50 c:/devkitPro/libogc/lib/cube\libogc.a(console.o)
                0x8041e99c                dotab_stdout
 .rodata.str1.4
                0x8041e9ec        0x7 c:/devkitPro/libogc/lib/cube\libogc.a(console.o)
 *fill*         0x8041e9f3        0x1 00
 .rodata.__gettiming
                0x8041e9f4       0x58 c:/devkitPro/libogc/lib/cube\libogc.a(video.o)
 .rodata.video_timing
                0x8041ea4c      0x130 c:/devkitPro/libogc/lib/cube\libogc.a(video.o)
 .rodata.cst4   0x8041eb7c        0x4 c:/devkitPro/libogc/lib/cube\libogc.a(pad.o)
 .rodata.str1.4
                0x8041eb80       0x65 c:/devkitPro/libogc/lib/cube\libogc.a(system.o)
 *fill*         0x8041ebe5        0x3 00
 .rodata.card_sector_size
                0x8041ebe8       0x20 c:/devkitPro/libogc/lib/cube\libogc.a(card.o)
 .rodata.card_latency
                0x8041ec08       0x20 c:/devkitPro/libogc/lib/cube\libogc.a(card.o)
 .rodata.str1.4
                0x8041ec28       0x1e c:/devkitPro/libogc/lib/cube\libogc.a(card.o)
 *fill*         0x8041ec46        0x2 00
 .rodata.__dsp_def_taskcb
                0x8041ec48       0x14 c:/devkitPro/libogc/lib/cube\libogc.a(dsp.o)
 .rodata.str1.4
                0x8041ec5c        0x2 c:/devkitPro/libogc/lib/cube\libogc.a(newlibc.o)
 *fill*         0x8041ec5e        0x2 00
 .rodata.exception_location
                0x8041ec60       0x3c c:/devkitPro/libogc/lib/cube\libogc.a(exception.o)
 .rodata.str1.4
                0x8041ec9c      0x2c4 c:/devkitPro/libogc/lib/cube\libogc.a(exception.o)
                                0x2c8 (size before relaxing)
 .rodata.exception_name
                0x8041ef60       0x3c c:/devkitPro/libogc/lib/cube\libogc.a(exception.o)
 .rodata._irqPrio
                0x8041ef9c       0x2c c:/devkitPro/libogc/lib/cube\libogc.a(irq.o)
 .rodata.kvsprintf
                0x8041efc8      0x194 c:/devkitPro/libogc/lib/cube\libogc.a(kprintf.o)
 .rodata.str1.4
                0x8041f15c       0x57 c:/devkitPro/libogc/lib/cube\libogc.a(kprintf.o)
 *fill*         0x8041f1b3        0x1 00
 .rodata.str1.4
                0x8041f1b4       0xa7 c:/devkitpro/devkitppc/bin/../lib/gcc/powerpc-gekko/4.2.3/../../../../powerpc-gekko/lib\libfreetype.a(ftbase.o)
                                 0xa8 (size before relaxing)
 *fill*         0x8041f25b        0x1 00
 .rodata.str1.4
                0x8041f25c       0x52 c:/devkitpro/devkitppc/bin/../lib/gcc/powerpc-gekko/4.2.3/../../../../powerpc-gekko/lib\libfreetype.a(truetype.o)
                                 0x78 (size before relaxing)
 *fill*         0x8041f2ae        0x2 00
 .rodata.str1.4
                0x8041f2b0      0x2bf c:/devkitpro/devkitppc/bin/../lib/gcc/powerpc-gekko/4.2.3/../../../../powerpc-gekko/lib\libfreetype.a(type1.o)
                                0x348 (size before relaxing)
 *fill*         0x8041f56f        0x1 00
 .rodata.str1.4
                0x8041f570        0x4 c:/devkitpro/devkitppc/bin/../lib/gcc/powerpc-gekko/4.2.3/../../../../powerpc-gekko/lib\libfreetype.a(cff.o)
                                 0x84 (size before relaxing)
 .rodata.str1.4
                0x8041f574      0x12e c:/devkitpro/devkitppc/bin/../lib/gcc/powerpc-gekko/4.2.3/../../../../powerpc-gekko/lib\libfreetype.a(type1cid.o)
                                0x318 (size before relaxing)
 *fill*         0x8041f6a2        0x2 00
 .rodata.str1.4
                0x8041f6a4       0x14 c:/devkitpro/devkitppc/bin/../lib/gcc/powerpc-gekko/4.2.3/../../../../powerpc-gekko/lib\libfreetype.a(pfr.o)
                                 0x28 (size before relaxing)
 .rodata.str1.4
                0x8041f6b8       0x2a c:/devkitpro/devkitppc/bin/../lib/gcc/powerpc-gekko/4.2.3/../../../../powerpc-gekko/lib\libfreetype.a(type42.o)
                                0x1d0 (size before relaxing)
 *fill*         0x8041f6e2        0x2 00
 .rodata.str1.4
                0x8041f6e4       0x2b c:/devkitpro/devkitppc/bin/../lib/gcc/powerpc-gekko/4.2.3/../../../../powerpc-gekko/lib\libfreetype.a(winfnt.o)
                                 0x50 (size before relaxing)
 *fill*         0x8041f70f        0x1 00
 .rodata.str1.4
                0x8041f710       0xa9 c:/devkitpro/devkitppc/bin/../lib/gcc/powerpc-gekko/4.2.3/../../../../powerpc-gekko/lib\libfreetype.a(pcf.o)
                                0x104 (size before relaxing)
 *fill*         0x8041f7b9        0x3 00
 .rodata.str1.4
                0x8041f7bc      0x3e2 c:/devkitpro/devkitppc/bin/../lib/gcc/powerpc-gekko/4.2.3/../../../../powerpc-gekko/lib\libfreetype.a(bdf.o)
                                0x63c (size before relaxing)
 .rodata.str1.4
                0x00000000       0x84 c:/devkitpro/devkitppc/bin/../lib/gcc/powerpc-gekko/4.2.3/../../../../powerpc-gekko/lib\libfreetype.a(sfnt.o)
 *fill*         0x8041fb9e        0x2 00
 .rodata.str1.4
                0x8041fba0       0x3a c:/devkitpro/devkitppc/bin/../lib/gcc/powerpc-gekko/4.2.3/../../../../powerpc-gekko/lib\libfreetype.a(autofit.o)
                                 0x3c (size before relaxing)
 .rodata.str1.4
                0x00000000        0xc c:/devkitpro/devkitppc/bin/../lib/gcc/powerpc-gekko/4.2.3/../../../../powerpc-gekko/lib\libfreetype.a(pshinter.o)
 *fill*         0x8041fbda        0x2 00
 .rodata.str1.4
                0x8041fbdc       0x10 c:/devkitpro/devkitppc/bin/../lib/gcc/powerpc-gekko/4.2.3/../../../../powerpc-gekko/lib\libfreetype.a(raster.o)
 .rodata.str1.4
                0x8041fbec       0x1f c:/devkitpro/devkitppc/bin/../lib/gcc/powerpc-gekko/4.2.3/../../../../powerpc-gekko/lib\libfreetype.a(smooth.o)
                                 0x20 (size before relaxing)
 *fill*         0x8041fc0b        0x1 00
 .rodata.str1.4
                0x8041fc0c      0x20e c:/devkitpro/devkitppc/bin/../lib/gcc/powerpc-gekko/4.2.3/../../../../powerpc-gekko/lib\libfreetype.a(ftgzip.o)
                                0x210 (size before relaxing)
 *fill*         0x8041fe1a        0x2 00
 .rodata.str1.4
                0x8041fe1c      0x251 c:/devkitpro/devkitppc/bin/../lib/gcc/powerpc-gekko/4.2.3/../../../../powerpc-gekko/lib\libfreetype.a(psaux.o)
                                0x34c (size before relaxing)
 *fill*         0x8042006d        0x3 00
 .rodata.str1.4
                0x80420070        0x8 c:/devkitpro/devkitppc/bin/../lib/gcc/powerpc-gekko/4.2.3/../../../../powerpc-gekko/lib\libfreetype.a(psnames.o)
                                 0x1c (size before relaxing)
 .rodata.str1.4
                0x80420078        0x3 c:/devkitpro/devkitppc/bin/../lib/gcc/powerpc-gekko/4.2.3/../../../../powerpc-gekko/lib\libfreetype.a(ftsystem.o)
                                  0x4 (size before relaxing)
 *fill*         0x8042007b        0x1 00
 .rodata.str1.4
                0x8042007c     0x1290 c:/devkitpro/devkitppc/bin/../lib/gcc/powerpc-gekko/4.2.3/../../../../powerpc-gekko/lib\libjpeg.a(jerror.o)
 .rodata.str1.4
                0x8042130c        0xe c:/devkitpro/devkitppc/bin/../lib/gcc/powerpc-gekko/4.2.3/../../../../powerpc-gekko/lib\libjpeg.a(jmemmgr.o)
                                 0x10 (size before relaxing)
 *fill*         0x8042131a        0x6 00
 .rodata.cst8   0x80421320        0x8 c:/devkitpro/devkitppc/bin/../lib/gcc/powerpc-gekko/4.2.3/../../../../powerpc-gekko/lib\libjpeg.a(jddctmgr.o)
 .rodata.cst4   0x80421328       0x10 c:/devkitpro/devkitppc/bin/../lib/gcc/powerpc-gekko/4.2.3/../../../../powerpc-gekko/lib\libjpeg.a(jidctflt.o)
 .rodata.cst8   0x80421338        0x8 c:/devkitpro/devkitppc/bin/../lib/gcc/powerpc-gekko/4.2.3/../../../../powerpc-gekko/lib\libjpeg.a(jidctflt.o)
 .rodata.str1.4
                0x80421340        0xf c:/devkitpro/devkitppc/bin/../lib/gcc/powerpc-gekko/4.2.3/../../../../powerpc-gekko/lib\libsysbase.a(abort.o)
 *fill*         0x8042134f        0x1 00
 .rodata.str1.4
                0x80421350        0x8 c:/devkitpro/devkitppc/bin/../lib/gcc/powerpc-gekko/4.2.3/../../../../powerpc-gekko/lib\libsysbase.a(iosupport.o)
 .rodata.str1.4
                0x00000000        0x2 c:/devkitpro/devkitppc/bin/../lib/gcc/powerpc-gekko/4.2.3/../../../../powerpc-gekko/lib\libc.a(lib_a-impure.o)
 .rodata.str1.4
                0x00000000        0x2 c:/devkitpro/devkitppc/bin/../lib/gcc/powerpc-gekko/4.2.3/../../../../powerpc-gekko/lib\libc.a(lib_a-puts.o)
 .rodata.cst4   0x80421358       0x18 c:/devkitpro/devkitppc/bin/../lib/gcc/powerpc-gekko/4.2.3/../../../../powerpc-gekko/lib\libc.a(lib_a-vfprintf.o)
 .rodata.cst8   0x00000000        0x8 c:/devkitpro/devkitppc/bin/../lib/gcc/powerpc-gekko/4.2.3/../../../../powerpc-gekko/lib\libc.a(lib_a-vfprintf.o)
 .rodata.str1.4
                0x80421370       0x5e c:/devkitpro/devkitppc/bin/../lib/gcc/powerpc-gekko/4.2.3/../../../../powerpc-gekko/lib\libc.a(lib_a-vfprintf.o)
 *fill*         0x804213ce        0x2 00
 .rodata.cst4   0x804213d0        0x4 c:/devkitpro/devkitppc/bin/../lib/gcc/powerpc-gekko/4.2.3/../../../../powerpc-gekko/lib\libc.a(lib_a-vfscanf.o)
 .rodata.str1.4
                0x804213d4        0x5 c:/devkitpro/devkitppc/bin/../lib/gcc/powerpc-gekko/4.2.3/../../../../powerpc-gekko/lib\libc.a(lib_a-vfscanf.o)
 *fill*         0x804213d9        0x3 00
 .rodata.str1.4
                0x804213dc       0x1e c:/devkitpro/devkitppc/bin/../lib/gcc/powerpc-gekko/4.2.3/../../../../powerpc-gekko/lib\libc.a(lib_a-wctomb_r.o)
 *fill*         0x804213fa        0x2 00
 .rodata.str1.4
                0x804213fc       0x20 c:/devkitpro/devkitppc/bin/../lib/gcc/powerpc-gekko/4.2.3/../../../../powerpc-gekko/lib\libc.a(lib_a-asctime_r.o)
 .rodata.cst4   0x8042141c       0x18 c:/devkitpro/devkitppc/bin/../lib/gcc/powerpc-gekko/4.2.3/../../../../powerpc-gekko/lib\libc.a(lib_a-dtoa.o)
                                 0x20 (size before relaxing)
 *fill*         0x80421434        0x4 00
 .rodata.cst8   0x80421438       0x18 c:/devkitpro/devkitppc/bin/../lib/gcc/powerpc-gekko/4.2.3/../../../../powerpc-gekko/lib\libc.a(lib_a-dtoa.o)
                                 0x20 (size before relaxing)
 .rodata.str1.4
                0x80421450       0x10 c:/devkitpro/devkitppc/bin/../lib/gcc/powerpc-gekko/4.2.3/../../../../powerpc-gekko/lib\libc.a(lib_a-dtoa.o)
                                 0x12 (size before relaxing)
 .rodata.str1.4
                0x00000000       0x20 c:/devkitpro/devkitppc/bin/../lib/gcc/powerpc-gekko/4.2.3/../../../../powerpc-gekko/lib\libc.a(lib_a-iswspace.o)
 .rodata.str1.4
                0x80421460       0x3a c:/devkitpro/devkitppc/bin/../lib/gcc/powerpc-gekko/4.2.3/../../../../powerpc-gekko/lib\libc.a(lib_a-locale.o)
                                 0x62 (size before relaxing)
 .rodata.str1.4
                0x00000000        0x1 c:/devkitpro/devkitppc/bin/../lib/gcc/powerpc-gekko/4.2.3/../../../../powerpc-gekko/lib\libc.a(lib_a-mbrtowc.o)
 .rodata.str1.4
                0x00000000       0x1e c:/devkitpro/devkitppc/bin/../lib/gcc/powerpc-gekko/4.2.3/../../../../powerpc-gekko/lib\libc.a(lib_a-mbtowc_r.o)
 .rodata.cst4   0x00000000        0x8 c:/devkitpro/devkitppc/bin/../lib/gcc/powerpc-gekko/4.2.3/../../../../powerpc-gekko/lib\libc.a(lib_a-mprec.o)
 *fill*         0x8042149a        0x2 00
 .rodata.cst4   0x8042149c       0x10 c:/devkitpro/devkitppc/bin/../lib/gcc/powerpc-gekko/4.2.3/../../../../powerpc-gekko/lib\libc.a(lib_a-strtod.o)
                                 0x20 (size before relaxing)
 *fill*         0x804214ac        0x4 00
 .rodata.cst8   0x804214b0       0x20 c:/devkitpro/devkitppc/bin/../lib/gcc/powerpc-gekko/4.2.3/../../../../powerpc-gekko/lib\libc.a(lib_a-strtod.o)
                                 0x28 (size before relaxing)
 .rodata.str1.4
                0x804214d0        0xf c:/devkitpro/devkitppc/bin/../lib/gcc/powerpc-gekko/4.2.3/../../../../powerpc-gekko/lib\libc.a(lib_a-strtod.o)
 *fill*         0x804214df        0x1 00
 .rodata.cst4   0x804214e0        0x8 c:/devkitpro/devkitppc/bin/../lib/gcc/powerpc-gekko/4.2.3/../../../../powerpc-gekko/lib\libc.a(lib_a-vfiprintf.o)
 .rodata.str1.4
                0x00000000       0x4a c:/devkitpro/devkitppc/bin/../lib/gcc/powerpc-gekko/4.2.3/../../../../powerpc-gekko/lib\libc.a(lib_a-vfiprintf.o)
 .rodata.str1.4
                0x804214e8       0x1c c:/devkitpro/devkitppc/bin/../lib/gcc/powerpc-gekko/4.2.3/../../../../powerpc-gekko/lib\libc.a(lib_a-gdtoa-gethex.o)
                                 0x1b (size before relaxing)
 *(.gnu.linkonce.r.*)

.eh_frame_hdr   0x80421504       0x1c
 .eh_frame_hdr  0x80421504       0x1c c:/devkitpro/devkitppc/bin/../lib/gcc/powerpc-gekko/4.2.3\libgcc.a(_udivdi3.o)

.rodata1
 *(.rodata1)

.sdata2         0x80421520       0x18
 *(.sdata2)
 .sdata2        0x80421520        0x0 c:/devkitpro/devkitppc/bin/../lib/gcc/powerpc-gekko/4.2.3/ecrti.o
                0x80421520                __SDATA2_START__
                0x80421520                _SDA2_BASE_
 *(.sdata2.*)
 .sdata2.mad_timer_zero
                0x80421520        0x8 c:/devkitPro/libogc/lib/cube\libmad.a(timer.o)
                0x80421520                mad_timer_zero
 .sdata2.hufftab0
                0x80421528        0x2 c:/devkitPro/libogc/lib/cube\libmad.a(huffman.o)
 *fill*         0x8042152a        0x2 00
 .sdata2.mad_huff_quad_table
                0x8042152c        0x8 c:/devkitPro/libogc/lib/cube\libmad.a(huffman.o)
                0x8042152c                mad_huff_quad_table
 .sdata2.__sys_inIPL
                0x80421534        0x4 c:/devkitPro/libogc/lib/cube\libogc.a(system.o)
 *(.gnu.linkonce.s2.*)

.sbss2
 *(.sbss2)
 *(.sbss2.*)
 *(.gnu.linkonce.sb2.*)
                0x80421538                . = ALIGN (0x4)
                0x80421538                PROVIDE (__preinit_array_start, .)

.preinit_array
 *(.preinit_array)
                0x80421538                PROVIDE (__preinit_array_end, .)
                0x80421538                PROVIDE (__init_array_start, .)

.init_array
 *(.init_array)
                0x80421538                PROVIDE (__init_array_end, .)
                0x80421538                PROVIDE (__fini_array_start, .)

.fini_array
 *(.fini_array)
                0x80421538                PROVIDE (__fini_array_end, .)

.data           0x80421540     0x20c0
 *(.data)
 .data          0x80421540        0x8 c:/devkitpro/devkitppc/bin/../lib/gcc/powerpc-gekko/4.2.3/crtbegin.o
                0x80421540                __dso_handle
 .data          0x80421548        0x8 c:/devkitPro/libogc/lib/cube\libogc.a(ogc_crt0.o)
 .data          0x80421550       0x44 c:/devkitpro/devkitppc/bin/../lib/gcc/powerpc-gekko/4.2.3/../../../../powerpc-gekko/lib\libsysbase.a(iosupport.o)
                0x80421554                devoptab_list
 *fill*         0x80421594        0x4 00
 .data          0x80421598      0x400 c:/devkitpro/devkitppc/bin/../lib/gcc/powerpc-gekko/4.2.3/../../../../powerpc-gekko/lib\libc.a(lib_a-impure.o)
 .data          0x80421998      0x408 c:/devkitpro/devkitppc/bin/../lib/gcc/powerpc-gekko/4.2.3/../../../../powerpc-gekko/lib\libc.a(lib_a-mallocr.o)
                0x80421998                __malloc_av_
 .data          0x80421da0       0x40 c:/devkitpro/devkitppc/bin/../lib/gcc/powerpc-gekko/4.2.3/../../../../powerpc-gekko/lib\libc.a(lib_a-gettzinfo.o)
 .data          0x80421de0       0x34 c:/devkitpro/devkitppc/bin/../lib/gcc/powerpc-gekko/4.2.3/../../../../powerpc-gekko/lib\libc.a(lib_a-locale.o)
                0x80421df0                __lc_ctype
 .data          0x80421e14       0x28 c:/devkitpro/devkitppc/bin/../lib/gcc/powerpc-gekko/4.2.3/../../../../powerpc-gekko/lib\libc.a(lib_a-strtod.o)
 *(.data.*)
 .data.slotstat
                0x80421e3c       0x32 template.o
                0x80421e3c                slotstat
 *fill*         0x80421e6e        0x2 00
 .data.TVPal528IntDf
                0x80421e70       0x3c c:/devkitPro/libogc/lib/cube\libogc.a(video.o)
                0x80421e70                TVPal528IntDf
 .data.TVNtsc480IntDf
                0x80421eac       0x3c c:/devkitPro/libogc/lib/cube\libogc.a(video.o)
                0x80421eac                TVNtsc480IntDf
 .data.TVMpal480IntDf
                0x80421ee8       0x3c c:/devkitPro/libogc/lib/cube\libogc.a(video.o)
                0x80421ee8                TVMpal480IntDf
 .data.pad_resetinfo
                0x80421f24       0x10 c:/devkitPro/libogc/lib/cube\libogc.a(pad.o)
 .data.mem_resetinfo
                0x80421f34       0x10 c:/devkitPro/libogc/lib/cube\libogc.a(system.o)
 .data._dsp_initcode
                0x80421f44       0x80 c:/devkitPro/libogc/lib/cube\libogc.a(system.o)
 *fill*         0x80421fc4       0x1c 00
 .data._cardunlockdata
                0x80421fe0      0x580 c:/devkitPro/libogc/lib/cube\libogc.a(card.o)
 .data.card_resetinfo
                0x80422560       0x10 c:/devkitPro/libogc/lib/cube\libogc.a(card.o)
 .data.xy       0x80422570       0x60 c:/devkitPro/libogc/lib/cube\libogc.a(si.o)
 .data.sicntrl  0x804225d0       0x14 c:/devkitPro/libogc/lib/cube\libogc.a(si.o)
 .data.si_type  0x804225e4       0x10 c:/devkitPro/libogc/lib/cube\libogc.a(si.o)
 .data.console_font_8x16
                0x804225f4     0x1000 c:/devkitPro/libogc/lib/cube\libogc.a(console_font_8x16.o)
                0x804225f4                console_font_8x16
 *(.gnu.linkonce.d.*)
                0x80423600                . = ALIGN (0x20)
 *fill*         0x804235f4        0xc 00

.data1
 *(.data1)

.tdata
 *(.tdata .tdata.* .gnu.linkonce.td.*)

.tbss
 *(.tbss .tbss.* .gnu.linkonce.tb.*)
 *(.tcommon)

.eh_frame       0x80423600       0x54
 *(.eh_frame)
 .eh_frame      0x80423600        0x0 c:/devkitpro/devkitppc/bin/../lib/gcc/powerpc-gekko/4.2.3/ecrti.o
                0x80423600                __EH_FRAME_BEGIN__
 .eh_frame      0x80423600        0x0 c:/devkitpro/devkitppc/bin/../lib/gcc/powerpc-gekko/4.2.3/crtbegin.o
 .eh_frame      0x80423600       0x2c c:/devkitpro/devkitppc/bin/../lib/gcc/powerpc-gekko/4.2.3\libgcc.a(_udivdi3.o)
 .eh_frame      0x8042362c       0x20 c:/devkitpro/devkitppc/bin/../lib/gcc/powerpc-gekko/4.2.3\libgcc.a(_umoddi3.o)
                                 0x30 (size before relaxing)
 .eh_frame      0x8042364c        0x4 c:/devkitpro/devkitppc/bin/../lib/gcc/powerpc-gekko/4.2.3/crtend.o
 .eh_frame      0x80423650        0x4 c:/devkitpro/devkitppc/bin/../lib/gcc/powerpc-gekko/4.2.3/ecrtn.o
                0x80423650                __EH_FRAME_END__

.gcc_except_table
 *(.gcc_except_table)

.fixup
 *(.fixup)

.got1
 *(.got1)

.got2           0x80423654        0x4
 *(.got2)
 .got2          0x80423654        0x4 c:/devkitpro/devkitppc/bin/../lib/gcc/powerpc-gekko/4.2.3/../../../../powerpc-gekko/lib/crtmain.o

.dynamic
 *(.dynamic)

.ctors          0x80423658        0x8
 *crtbegin.o(.ctors)
 .ctors         0x80423658        0x4 c:/devkitpro/devkitppc/bin/../lib/gcc/powerpc-gekko/4.2.3/crtbegin.o
 *(EXCLUDE_FILE(*crtend.o) .ctors)
 .ctors         0x8042365c        0x0 c:/devkitpro/devkitppc/bin/../lib/gcc/powerpc-gekko/4.2.3/ecrti.o
                0x8042365c                __CTOR_LIST__
 .ctors         0x8042365c        0x0 c:/devkitpro/devkitppc/bin/../lib/gcc/powerpc-gekko/4.2.3/ecrtn.o
                0x8042365c                __CTOR_END__
 *(SORT(.ctors.*))
 *(.ctors)
 .ctors         0x8042365c        0x4 c:/devkitpro/devkitppc/bin/../lib/gcc/powerpc-gekko/4.2.3/crtend.o
                0x80423660                . = ALIGN (0x20)
 *fill*         0x80423660        0x0 00

.dtors          0x80423660       0x20
 *crtbegin.o(.dtors)
 .dtors         0x80423660        0x4 c:/devkitpro/devkitppc/bin/../lib/gcc/powerpc-gekko/4.2.3/crtbegin.o
 *(EXCLUDE_FILE(*crtend.o) .dtors)
 .dtors         0x80423664        0x0 c:/devkitpro/devkitppc/bin/../lib/gcc/powerpc-gekko/4.2.3/ecrti.o
                0x80423664                __DTOR_LIST__
 .dtors         0x80423664        0x0 c:/devkitpro/devkitppc/bin/../lib/gcc/powerpc-gekko/4.2.3/ecrtn.o
                0x80423664                __DTOR_END__
 *(SORT(.dtors.*))
 *(.dtors)
 .dtors         0x80423664        0x4 c:/devkitpro/devkitppc/bin/../lib/gcc/powerpc-gekko/4.2.3/crtend.o
                0x80423680                . = ALIGN (0x20)
 *fill*         0x80423668       0x18 00

.jcr            0x80423680        0x4
 *(.jcr)
 .jcr           0x80423680        0x0 c:/devkitpro/devkitppc/bin/../lib/gcc/powerpc-gekko/4.2.3/crtbegin.o
 .jcr           0x80423680        0x4 c:/devkitpro/devkitppc/bin/../lib/gcc/powerpc-gekko/4.2.3/crtend.o

.got
 *(.got.plt)
 *(.got)

.sdata          0x80423688       0x98
 *(.sdata)
 .sdata         0x80423688        0x0 c:/devkitpro/devkitppc/bin/../lib/gcc/powerpc-gekko/4.2.3/ecrti.o
                0x80423688                _SDA_BASE_
                0x80423688                __SDATA_START__
 .sdata         0x80423688       0x40 c:/devkitpro/devkitppc/bin/../lib/gcc/powerpc-gekko/4.2.3/../../../../powerpc-gekko/lib\libm.a(lib_a-s_mathcnst.o)
                0x80423688                BIGX
                0x804236b0                z_hugeval
                0x804236b8                z_infinity
                0x804236a8                z_infinity_f
                0x80423698                z_rooteps
                0x804236c0                z_notanum
                0x80423690                SMALLX
                0x804236a4                z_hugeval_f
                0x804236a0                z_rooteps_f
                0x804236ac                z_notanum_f
 .sdata         0x804236c8        0x4 c:/devkitPro/libogc/lib/cube\libogc.a(ogc_crt0.o)
                0x804236c8                __system_argv
 .sdata         0x804236cc        0x4 c:/devkitpro/devkitppc/bin/../lib/gcc/powerpc-gekko/4.2.3/../../../../powerpc-gekko/lib\libc.a(lib_a-ctype_.o)
                0x804236cc                __ctype_ptr
 .sdata         0x804236d0        0x8 c:/devkitpro/devkitppc/bin/../lib/gcc/powerpc-gekko/4.2.3/../../../../powerpc-gekko/lib\libc.a(lib_a-impure.o)
                0x804236d4                _global_impure_ptr
                0x804236d0                _impure_ptr
 .sdata         0x804236d8        0x8 c:/devkitpro/devkitppc/bin/../lib/gcc/powerpc-gekko/4.2.3/../../../../powerpc-gekko/lib\libc.a(lib_a-mallocr.o)
                0x804236dc                __malloc_sbrk_base
                0x804236d8                __malloc_trim_threshold
 .sdata         0x804236e0        0x4 c:/devkitpro/devkitppc/bin/../lib/gcc/powerpc-gekko/4.2.3/../../../../powerpc-gekko/lib\libc.a(lib_a-environ.o)
                0x804236e0                environ
 .sdata         0x804236e4        0x4 c:/devkitpro/devkitppc/bin/../lib/gcc/powerpc-gekko/4.2.3/../../../../powerpc-gekko/lib\libc.a(lib_a-locale.o)
                0x804236e4                __mb_cur_max
 *(.sdata.*)
 .sdata.str     0x804236e8        0x4 template.o
                0x804236e8                str
 .sdata.__pad_spec
                0x804236ec        0x4 c:/devkitPro/libogc/lib/cube\libogc.a(pad.o)
 .sdata.__pad_cmdcalibrate
                0x804236f0        0x4 c:/devkitPro/libogc/lib/cube\libogc.a(pad.o)
 .sdata.__pad_resettingchan
                0x804236f4        0x4 c:/devkitPro/libogc/lib/cube\libogc.a(pad.o)
 .sdata.__pad_cmdreadorigin
                0x804236f8        0x4 c:/devkitPro/libogc/lib/cube\libogc.a(pad.o)
 .sdata.__argvArena1Lo
                0x804236fc        0x4 c:/devkitPro/libogc/lib/cube\libogc.a(system.o)
                0x804236fc                __argvArena1Lo
 .sdata.crand_next
                0x80423700        0x4 c:/devkitPro/libogc/lib/cube\libogc.a(card.o)
 .sdata.card_gamecode
                0x80423704        0x4 c:/devkitPro/libogc/lib/cube\libogc.a(card.o)
 .sdata.card_company
                0x80423708        0x2 c:/devkitPro/libogc/lib/cube\libogc.a(card.o)
 *(.gnu.linkonce.s.*)
                0x80423720                . = ALIGN (0x20)
 *fill*         0x8042370a       0x16 00
                0x80423720                _edata = .
                0x80423720                PROVIDE (edata, .)
                0x00399280                data_mem_size = (. - data_mem_start)
                0x80423720                bss_mem_start = .

.sbss           0x80423720      0x200
                0x80423720                __sbss_start = .
                0x80423720                PROVIDE (__sbss_start, .)
                0x80423720                PROVIDE (___sbss_start, .)
 *(.dynsbss)
 *(.sbss)
 .sbss          0x00000000        0x0 c:/devkitpro/devkitppc/bin/../lib/gcc/powerpc-gekko/4.2.3/crtbegin.o
 .sbss          0x80423720       0x10 freetype.o
                0x80423720                face
                0x80423724                glyph_index
                0x80423728                ftlibrary
                0x8042372c                slot
 .sbss          0x80423730       0x22 template.o
                0x80423730                buttonsdown
                0x80423734                c_y
                0x80423735                trigr
                0x80423738                errorB
                0x8042373c                screenheight
                0x80423740                plugtot
                0x80423744                trigl
                0x80423745                sticky
                0x80423748                errorA
                0x8042374c                vmode
                0x80423750                c_x
                0x80423751                stickx
 *fill*         0x80423752        0x2 00
 .sbss          0x80423754        0x4 c:/devkitPro/libogc/lib/cube\libogc.a(sys_state.o)
                0x80423754                _sys_state_curr
 .sbss          0x80423758        0x4 c:/devkitPro/libogc/lib/cube\libogc.a(newlibc.o)
                0x80423758                libc_reentrant
 .sbss          0x8042375c        0x4 c:/devkitPro/libogc/lib/cube\libogc.a(lwp_priority.o)
                0x8042375c                _prio_major_bitmap
 .sbss          0x80423760        0x8 c:/devkitPro/libogc/lib/cube\libogc.a(lwp_threads.o)
                0x80423760                _context_switch_want
                0x80423764                _thread_dispatch_disable_level
 .sbss          0x80423768        0xc c:/devkitPro/libogc/lib/cube\libogc.a(lwp_watchdog.o)
                0x80423768                _wd_sync_count
                0x8042376c                _wd_sync_level
                0x80423770                _wd_ticks_since_boot
 .sbss          0x80423774        0xc c:/devkitpro/devkitppc/bin/../lib/gcc/powerpc-gekko/4.2.3/../../../../powerpc-gekko/lib\libc.a(lib_a-mallocr.o)
                0x80423774                __malloc_top_pad
                0x80423778                __malloc_max_sbrked_mem
                0x8042377c                __malloc_max_total_mem
 .sbss          0x80423780        0x8 c:/devkitpro/devkitppc/bin/../lib/gcc/powerpc-gekko/4.2.3/../../../../powerpc-gekko/lib\libc.a(lib_a-tzvars.o)
                0x80423780                _daylight
                0x80423784                _timezone
 *(.sbss.*)
 .sbss.xfb      0x80423788        0x8 template.o
                0x80423788                xfb
 .sbss.whichfb  0x80423790        0x4 template.o
                0x80423790                whichfb
 .sbss.mp3read  0x80423794        0x4 c:/devkitPro/libogc/lib/cube\libmad.a(mp3player.o)
 .sbss.thQueue  0x80423798        0x4 c:/devkitPro/libogc/lib/cube\libmad.a(mp3player.o)
 .sbss.mp3filterfunc
                0x8042379c        0x4 c:/devkitPro/libogc/lib/cube\libmad.a(mp3player.o)
 .sbss.mp3cb_data
                0x804237a0        0x4 c:/devkitPro/libogc/lib/cube\libmad.a(mp3player.o)
 .sbss.hStreamPlay
                0x804237a4        0x4 c:/devkitPro/libogc/lib/cube\libmad.a(mp3player.o)
 .sbss.thr_running
                0x804237a8        0x4 c:/devkitPro/libogc/lib/cube\libmad.a(mp3player.o)
 .sbss.CurrentBuffer
                0x804237ac        0x4 c:/devkitPro/libogc/lib/cube\libmad.a(mp3player.o)
 .sbss.MP3Playing
                0x804237b0        0x4 c:/devkitPro/libogc/lib/cube\libmad.a(mp3player.o)
 .sbss.init_done
                0x804237b4        0x4 c:/devkitPro/libogc/lib/cube\libmad.a(mp3player.o)
 .sbss.curr_con
                0x804237b8        0x4 c:/devkitPro/libogc/lib/cube\libogc.a(console.o)
 .sbss.do_xfb_copy
                0x804237bc        0x4 c:/devkitPro/libogc/lib/cube\libogc.a(console.o)
 .sbss.null_local_table
                0x804237c0        0x4 c:/devkitPro/libogc/lib/cube\libogc.a(lwp_objmgr.o)
 .sbss._lwp_objmgr_memsize
                0x804237c4        0x4 c:/devkitPro/libogc/lib/cube\libogc.a(lwp_objmgr.o)
 .sbss.postRetraceCB
                0x804237c8        0x4 c:/devkitPro/libogc/lib/cube\libogc.a(video.o)
 .sbss.currentFb
                0x804237cc        0x4 c:/devkitPro/libogc/lib/cube\libogc.a(video.o)
 .sbss.currTiming
                0x804237d0        0x4 c:/devkitPro/libogc/lib/cube\libogc.a(video.o)
 .sbss.currTvMode
                0x804237d4        0x4 c:/devkitPro/libogc/lib/cube\libogc.a(video.o)
 .sbss.nextFb   0x804237d8        0x4 c:/devkitPro/libogc/lib/cube\libogc.a(video.o)
 .sbss.encoderType
                0x804237dc        0x4 c:/devkitPro/libogc/lib/cube\libogc.a(video.o)
 .sbss.displayOffsetH
                0x804237e0        0x2 c:/devkitPro/libogc/lib/cube\libogc.a(video.o)
 *fill*         0x804237e2        0x2 00
 .sbss.changeMode
                0x804237e4        0x4 c:/devkitPro/libogc/lib/cube\libogc.a(video.o)
 .sbss.displayOffsetV
                0x804237e8        0x2 c:/devkitPro/libogc/lib/cube\libogc.a(video.o)
 *fill*         0x804237ea        0x2 00
 .sbss.flushFlag
                0x804237ec        0x4 c:/devkitPro/libogc/lib/cube\libogc.a(video.o)
 .sbss.preRetraceCB
                0x804237f0        0x4 c:/devkitPro/libogc/lib/cube\libogc.a(video.o)
 .sbss.video_queue
                0x804237f4        0x4 c:/devkitPro/libogc/lib/cube\libogc.a(video.o)
 .sbss.shdw_changeMode
                0x804237f8        0x4 c:/devkitPro/libogc/lib/cube\libogc.a(video.o)
 .sbss.retraceCount
                0x804237fc        0x4 c:/devkitPro/libogc/lib/cube\libogc.a(video.o)
 .sbss.fbSet    0x80423800        0x4 c:/devkitPro/libogc/lib/cube\libogc.a(video.o)
 *fill*         0x80423804        0x4 00
 .sbss.changed  0x80423808        0x8 c:/devkitPro/libogc/lib/cube\libogc.a(video.o)
 .sbss.shdw_changed
                0x80423810        0x8 c:/devkitPro/libogc/lib/cube\libogc.a(video.o)
 .sbss.__pad_makestatus
                0x80423818        0x4 c:/devkitPro/libogc/lib/cube\libogc.a(pad.o)
 .sbss.__pad_resettingbits
                0x8042381c        0x4 c:/devkitPro/libogc/lib/cube\libogc.a(pad.o)
 .sbss.__pad_recalibratebits
                0x80423820        0x4 c:/devkitPro/libogc/lib/cube\libogc.a(pad.o)
 .sbss.__pad_enabledbits
                0x80423824        0x4 c:/devkitPro/libogc/lib/cube\libogc.a(pad.o)
 .sbss.__pad_pendingbits
                0x80423828        0x4 c:/devkitPro/libogc/lib/cube\libogc.a(pad.o)
 .sbss.__pad_checkingbits
                0x8042382c        0x4 c:/devkitPro/libogc/lib/cube\libogc.a(pad.o)
 .sbss.__pad_waitingbits
                0x80423830        0x4 c:/devkitPro/libogc/lib/cube\libogc.a(pad.o)
 .sbss.__pad_samplingcallback
                0x80423834        0x4 c:/devkitPro/libogc/lib/cube\libogc.a(pad.o)
 .sbss.__pad_initialized
                0x80423838        0x4 c:/devkitPro/libogc/lib/cube\libogc.a(pad.o)
 .sbss.__pad_recalibrated$207
                0x8042383c        0x4 c:/devkitPro/libogc/lib/cube\libogc.a(pad.o)
 .sbss.__sysarena1lo
                0x80423840        0x4 c:/devkitPro/libogc/lib/cube\libogc.a(system.o)
 .sbss.down.4706
                0x80423844        0x4 c:/devkitPro/libogc/lib/cube\libogc.a(system.o)
 .sbss.__sysarena1hi
                0x80423848        0x4 c:/devkitPro/libogc/lib/cube\libogc.a(system.o)
 .sbss.__sys_versiondate
                0x8042384c        0x4 c:/devkitPro/libogc/lib/cube\libogc.a(system.o)
 .sbss.__sys_versionbuild
                0x80423850        0x4 c:/devkitPro/libogc/lib/cube\libogc.a(system.o)
 .sbss.system_initialized
                0x80423854        0x4 c:/devkitPro/libogc/lib/cube\libogc.a(system.o)
 .sbss.hold_down.4708
                0x80423858        0x8 c:/devkitPro/libogc/lib/cube\libogc.a(system.o)
 .sbss.__RSWCallback
                0x80423860        0x4 c:/devkitPro/libogc/lib/cube\libogc.a(system.o)
 .sbss.last_state.4707
                0x80423864        0x4 c:/devkitPro/libogc/lib/cube\libogc.a(system.o)
 .sbss.__AIS_Callback
                0x80423868        0x4 c:/devkitPro/libogc/lib/cube\libogc.a(audio.o)
 .sbss.__AIInitFlag
                0x8042386c        0x4 c:/devkitPro/libogc/lib/cube\libogc.a(audio.o)
 .sbss.__CallbackStack
                0x80423870        0x4 c:/devkitPro/libogc/lib/cube\libogc.a(audio.o)
 *fill*         0x80423874        0x4 00
 .sbss.bound_32KHz
                0x80423878        0x8 c:/devkitPro/libogc/lib/cube\libogc.a(audio.o)
 .sbss.buffer   0x80423880        0x8 c:/devkitPro/libogc/lib/cube\libogc.a(audio.o)
 .sbss.min_wait
                0x80423888        0x8 c:/devkitPro/libogc/lib/cube\libogc.a(audio.o)
 .sbss.bound_48KHz
                0x80423890        0x8 c:/devkitPro/libogc/lib/cube\libogc.a(audio.o)
 .sbss.max_wait
                0x80423898        0x8 c:/devkitPro/libogc/lib/cube\libogc.a(audio.o)
 .sbss.__OldStack
                0x804238a0        0x4 c:/devkitPro/libogc/lib/cube\libogc.a(audio.o)
 .sbss.__AID_Callback
                0x804238a4        0x4 c:/devkitPro/libogc/lib/cube\libogc.a(audio.o)
 .sbss.card_inited
                0x804238a8        0x4 c:/devkitPro/libogc/lib/cube\libogc.a(card.o)
 .sbss.first_task
                0x804238ac        0x4 c:/devkitPro/libogc/lib/cube\libogc.a(dsp.o)
 .sbss.__dsp_inited
                0x804238b0        0x4 c:/devkitPro/libogc/lib/cube\libogc.a(dsp.o)
 .sbss.curr_task
                0x804238b4        0x4 c:/devkitPro/libogc/lib/cube\libogc.a(dsp.o)
 .sbss.last_task
                0x804238b8        0x4 c:/devkitPro/libogc/lib/cube\libogc.a(dsp.o)
 .sbss.rude_task
                0x804238bc        0x4 c:/devkitPro/libogc/lib/cube\libogc.a(dsp.o)
 .sbss.__dsp_intcb
                0x804238c0        0x4 c:/devkitPro/libogc/lib/cube\libogc.a(dsp.o)
 .sbss.tmp_task
                0x804238c4        0x4 c:/devkitPro/libogc/lib/cube\libogc.a(dsp.o)
 .sbss.__dsp_rudetask_pend
                0x804238c8        0x4 c:/devkitPro/libogc/lib/cube\libogc.a(dsp.o)
 .sbss.__PADFixBits
                0x804238cc        0x4 c:/devkitPro/libogc/lib/cube\libogc.a(si.o)
                0x804238cc                __PADFixBits
 .sbss.cmdtypeandstatus$47
                0x804238d0        0x4 c:/devkitPro/libogc/lib/cube\libogc.a(si.o)
 .sbss.sampling_rate
                0x804238d4        0x4 c:/devkitPro/libogc/lib/cube\libogc.a(si.o)
 .sbss.cmdtypeandstatus$223
                0x804238d8        0x4 c:/devkitPro/libogc/lib/cube\libogc.a(si.o)
 .sbss.time_exi_wait
                0x804238dc        0x4 c:/devkitPro/libogc/lib/cube\libogc.a(timesupp.o)
 .sbss.exi_wait_inited
                0x804238e0        0x4 c:/devkitPro/libogc/lib/cube\libogc.a(timesupp.o)
 .sbss.initialized
                0x804238e4        0x4 c:/devkitPro/libogc/lib/cube\libogc.a(malloc_lock.o)
 .sbss._thr_executing
                0x804238e8        0x4 c:/devkitPro/libogc/lib/cube\libogc.a(lwp_threads.o)
                0x804238e8                _thr_executing
 .sbss._lwp_exitfunc
                0x804238ec        0x4 c:/devkitPro/libogc/lib/cube\libogc.a(lwp_threads.o)
 .sbss._thr_main
                0x804238f0        0x4 c:/devkitPro/libogc/lib/cube\libogc.a(lwp_threads.o)
                0x804238f0                _thr_main
 .sbss.__lwp_thr_libc_reent
                0x804238f4        0x4 c:/devkitPro/libogc/lib/cube\libogc.a(lwp_threads.o)
                0x804238f4                __lwp_thr_libc_reent
 .sbss._thr_heir
                0x804238f8        0x4 c:/devkitPro/libogc/lib/cube\libogc.a(lwp_threads.o)
                0x804238f8                _thr_heir
 .sbss._thr_allocated_fp
                0x804238fc        0x4 c:/devkitPro/libogc/lib/cube\libogc.a(lwp_threads.o)
                0x804238fc                _thr_allocated_fp
 .sbss._thr_idle
                0x80423900        0x4 c:/devkitPro/libogc/lib/cube\libogc.a(lwp_threads.o)
                0x80423900                _thr_idle
 .sbss.__wkspace_heap_size
                0x80423904        0x4 c:/devkitPro/libogc/lib/cube\libogc.a(lwp_wkspace.o)
 .sbss.spuriousIrq
                0x80423908        0x8 c:/devkitPro/libogc/lib/cube\libogc.a(irq.o)
 .sbss.prevIrqMask
                0x80423910        0x4 c:/devkitPro/libogc/lib/cube\libogc.a(irq.o)
 .sbss.currIrqMask
                0x80423914        0x4 c:/devkitPro/libogc/lib/cube\libogc.a(irq.o)
 .sbss.exi_id_serport1
                0x80423918        0x4 c:/devkitPro/libogc/lib/cube\libogc.a(exi.o)
 *(.gnu.linkonce.sb.*)
 *(.scommon)
                0x8042391c                PROVIDE (__sbss_end, .)
                0x8042391c                PROVIDE (___sbss_end, .)
                0x80423920                . = ALIGN (0x20)
 *fill*         0x8042391c        0x4 00
                0x80423920                __sbss_end = .

.bss            0x80423920    0x2bd00
                0x80423920                __bss_start = .
                0x80423920                PROVIDE (__bss_start, .)
 *(.dynbss)
 *(.bss)
 .bss           0x80423920       0x1c c:/devkitpro/devkitppc/bin/../lib/gcc/powerpc-gekko/4.2.3/crtbegin.o
 *fill*         0x8042393c        0x4 00
 .bss           0x80423940     0x4000 c:/devkitPro/libogc/lib/cube\libogc.a(ogc_crt0.o)
 .bss           0x80427940      0x424 c:/devkitpro/devkitppc/bin/../lib/gcc/powerpc-gekko/4.2.3/../../../../powerpc-gekko/lib\libjpeg.a(jpgogc.o)
 .bss           0x80427d64       0x20 c:/devkitpro/devkitppc/bin/../lib/gcc/powerpc-gekko/4.2.3/../../../../powerpc-gekko/lib\libsysbase.a(syscall_support.o)
                0x80427d64                __syscalls
 .bss           0x80427d84        0x8 c:/devkitpro/devkitppc/bin/../lib/gcc/powerpc-gekko/4.2.3/../../../../powerpc-gekko/lib\libc.a(lib_a-findfp.o)
 .bss           0x80427d8c       0x28 c:/devkitpro/devkitppc/bin/../lib/gcc/powerpc-gekko/4.2.3/../../../../powerpc-gekko/lib\libc.a(lib_a-mallocr.o)
                0x80427d8c                __malloc_current_mallinfo
 .bss           0x80427db4        0x4 c:/devkitpro/devkitppc/bin/../lib/gcc/powerpc-gekko/4.2.3/../../../../powerpc-gekko/lib\libc.a(lib_a-tzlock.o)
 .bss           0x80427db8        0x4 c:/devkitpro/devkitppc/bin/../lib/gcc/powerpc-gekko/4.2.3/../../../../powerpc-gekko/lib\libc.a(lib_a-environ.o)
 .bss           0x80427dbc        0x4 c:/devkitpro/devkitppc/bin/../lib/gcc/powerpc-gekko/4.2.3/../../../../powerpc-gekko/lib\libc.a(lib_a-envlock.o)
 .bss           0x80427dc0     0x1000 c:/devkitpro/devkitppc/bin/../lib/gcc/powerpc-gekko/4.2.3/../../../../powerpc-gekko/lib\libsysbase.a(handle_manager.o)
 *(.bss.*)
 .bss.fontlo    0x80428dc0        0x4 freetype.o
 .bss.fonthi    0x80428dc4        0x4 freetype.o
 .bss.motor     0x80428dc8       0x10 template.o
                0x80428dc8                motor
 *fill*         0x80428dd8        0x8 00
 .bss.SysArea   0x80428de0     0xa000 template.o
 .bss.OutputRingBuffer
                0x80432de0     0x8010 c:/devkitPro/libogc/lib/cube\libmad.a(mp3player.o)
 .bss.StreamPlay_Stack
                0x8043adf0     0x8000 c:/devkitPro/libogc/lib/cube\libmad.a(mp3player.o)
 .bss.InputBuffer
                0x80442df0     0x8008 c:/devkitPro/libogc/lib/cube\libmad.a(mp3player.o)
 *fill*         0x8044adf8        0x8 00
 .bss.OutputBuffer
                0x8044ae00     0x2700 c:/devkitPro/libogc/lib/cube\libmad.a(mp3player.o)
 .bss.stdcon    0x8044d500       0x40 c:/devkitPro/libogc/lib/cube\libogc.a(console.o)
 .bss.shdw_regs
                0x8044d540       0x78 c:/devkitPro/libogc/lib/cube\libogc.a(video.o)
 .bss.regs      0x8044d5b8       0x78 c:/devkitPro/libogc/lib/cube\libogc.a(video.o)
 .bss.HorVer    0x8044d630       0x58 c:/devkitPro/libogc/lib/cube\libogc.a(video.o)
 .bss.__pad_type
                0x8044d688       0x10 c:/devkitPro/libogc/lib/cube\libogc.a(pad.o)
 .bss.__pad_cmdprobedevice
                0x8044d698       0x10 c:/devkitPro/libogc/lib/cube\libogc.a(pad.o)
 .bss.__pad_keys
                0x8044d6a8       0x50 c:/devkitPro/libogc/lib/cube\libogc.a(pad.o)
 .bss.__pad_origin
                0x8044d6f8       0x30 c:/devkitPro/libogc/lib/cube\libogc.a(pad.o)
 .bss.sys_reset_func_queue
                0x8044d728        0xc c:/devkitPro/libogc/lib/cube\libogc.a(system.o)
 .bss.sys_alarm_objects
                0x8044d734       0x28 c:/devkitPro/libogc/lib/cube\libogc.a(system.o)
 .bss.cardmap   0x8044d75c      0x1a8 c:/devkitPro/libogc/lib/cube\libogc.a(card.o)
 *fill*         0x8044d904       0x1c 00
 .bss.tmp_buffer
                0x8044d920       0x40 c:/devkitPro/libogc/lib/cube\libogc.a(card.o)
 .bss.inputBufferValid
                0x8044d960       0x10 c:/devkitPro/libogc/lib/cube\libogc.a(si.o)
 .bss.inputBuffer
                0x8044d970       0x20 c:/devkitPro/libogc/lib/cube\libogc.a(si.o)
 .bss.typeCallback
                0x8044d990       0x40 c:/devkitPro/libogc/lib/cube\libogc.a(si.o)
 .bss.typeTime  0x8044d9d0       0x20 c:/devkitPro/libogc/lib/cube\libogc.a(si.o)
 .bss.xferTime  0x8044d9f0       0x20 c:/devkitPro/libogc/lib/cube\libogc.a(si.o)
 .bss.cmdfixdevice
                0x8044da10       0x10 c:/devkitPro/libogc/lib/cube\libogc.a(si.o)
 .bss.sipacket  0x8044da20       0x80 c:/devkitPro/libogc/lib/cube\libogc.a(si.o)
 .bss.inputBufferVCount
                0x8044daa0       0x10 c:/devkitPro/libogc/lib/cube\libogc.a(si.o)
 .bss.si_alarm  0x8044dab0       0x10 c:/devkitPro/libogc/lib/cube\libogc.a(si.o)
 .bss.rdstHandlers
                0x8044dac0       0x10 c:/devkitPro/libogc/lib/cube\libogc.a(si.o)
 .bss.mem_lock  0x8044dad0       0x5c c:/devkitPro/libogc/lib/cube\libogc.a(malloc_lock.o)
 .bss.g_IRQHandler
                0x8044db2c      0x100 c:/devkitPro/libogc/lib/cube\libogc.a(irq.o)
 *fill*         0x8044dc2c        0x4 00
 .bss.eximap    0x8044dc30       0xc0 c:/devkitPro/libogc/lib/cube\libogc.a(exi.o)
 .bss.lckdevs   0x8044dcf0      0x200 c:/devkitPro/libogc/lib/cube\libogc.a(exi.o)
 .bss._lckdev_queue
                0x8044def0        0xc c:/devkitPro/libogc/lib/cube\libogc.a(exi.o)
 *fill*         0x8044defc        0x4 00
 .bss.last_exi_idtime
                0x8044df00       0x18 c:/devkitPro/libogc/lib/cube\libogc.a(exi.o)
 *(.gnu.linkonce.b.*)
 *(COMMON)
 COMMON         0x8044df18       0x10 template.o
                0x8044df18                plugged
 COMMON         0x8044df28        0xc c:/devkitPro/libogc/lib/cube\libmad.a(mp3player.o)
                0x8044df28                rambuffer
 COMMON         0x8044df34       0x50 c:/devkitPro/libogc/lib/cube\libogc.a(lwp.o)
                0x8044df34                _lwp_thr_objects
                0x8044df5c                _lwp_tqueue_objects
 *fill*         0x8044df84       0x1c 00
 COMMON         0x8044dfa0       0x50 c:/devkitPro/libogc/lib/cube\libogc.a(system.o)
                0x8044dfa0                sramcntrl
 COMMON         0x8044dff0       0x28 c:/devkitPro/libogc/lib/cube\libogc.a(cond.o)
                0x8044dff0                _lwp_cond_objects
 COMMON         0x8044e018       0x28 c:/devkitPro/libogc/lib/cube\libogc.a(message.o)
                0x8044e018                _lwp_mqbox_objects
 COMMON         0x8044e040      0x400 c:/devkitPro/libogc/lib/cube\libogc.a(newlibc.o)
                0x8044e040                libc_globl_reent
 COMMON         0x8044e440       0x40 c:/devkitPro/libogc/lib/cube\libogc.a(lwp_priority.o)
                0x8044e440                _prio_bitmap
 COMMON         0x8044e480      0xed0 c:/devkitPro/libogc/lib/cube\libogc.a(lwp_threads.o)
                0x8044e480                _lwp_thr_ready
                0x8044f080                core_context
 COMMON         0x8044f350        0xc c:/devkitPro/libogc/lib/cube\libogc.a(lwp_watchdog.o)
                0x8044f350                _wd_ticks_queue
 COMMON         0x8044f35c       0x1c c:/devkitPro/libogc/lib/cube\libogc.a(lwp_wkspace.o)
                0x8044f35c                __wkspace_heap
 COMMON         0x8044f378       0x3c c:/devkitPro/libogc/lib/cube\libogc.a(exception.o)
                0x8044f378                _exceptionhandlertable
 COMMON         0x8044f3b4       0x28 c:/devkitPro/libogc/lib/cube\libogc.a(semaphore.o)
                0x8044f3b4                _lwp_sema_objects
 COMMON         0x8044f3dc       0x28 c:/devkitPro/libogc/lib/cube\libogc.a(mutex.o)
                0x8044f3dc                _lwp_mutex_objects
 COMMON         0x8044f404      0x100 c:/devkitPro/libogc/lib/cube\libogc.a(kprintf.o)
                0x8044f404                __outstr
 COMMON         0x8044f504      0x100 c:/devkitpro/devkitppc/bin/../lib/gcc/powerpc-gekko/4.2.3/../../../../powerpc-gekko/lib\libc.a(lib_a-gdtoa-gethex.o)
                0x8044f504                __hexdig
                0x8044f620                . = ALIGN (0x20)
 *fill*         0x8044f604       0x1c 00
                0x8044f620                PROVIDE (__bss_end, .)
                0x8044f620                __bss_end = .
                0x0002bf00                bss_mem_size = (. - bss_mem_start)
                0x00000100                text_file_start = (text_mem_start - file_start)
                0x000874a0                data_file_start = (data_mem_start - file_start)
                0x00420720                bss_file_start = (bss_mem_start - file_start)
                0x8044f620                _end = .
                0x8044f620                PROVIDE (end, .)

.stab
 *(.stab)

.stabstr
 *(.stabstr)

.stab.excl
 *(.stab.excl)

.stab.exclstr
 *(.stab.exclstr)

.stab.index
 *(.stab.index)

.stab.indexstr
 *(.stab.indexstr)

.comment        0x00000000     0x1e36
 *(.comment)
 .comment       0x00000000        0xe c:/devkitpro/devkitppc/bin/../lib/gcc/powerpc-gekko/4.2.3/ecrti.o
 .comment       0x0000000e       0x29 c:/devkitpro/devkitppc/bin/../lib/gcc/powerpc-gekko/4.2.3/crtbegin.o
 .comment       0x00000037       0x29 c:/devkitpro/devkitppc/bin/../lib/gcc/powerpc-gekko/4.2.3/../../../../powerpc-gekko/lib/crtmain.o
 .comment       0x00000060       0x29 freetype.o
 .comment       0x00000089       0x29 template.o
 .comment       0x000000b2       0x29 c:/devkitPro/libogc/lib/cube\libmad.a(mp3player.o)
 .comment       0x000000db       0x29 c:/devkitPro/libogc/lib/cube\libmad.a(frame.o)
 .comment       0x00000104       0x29 c:/devkitPro/libogc/lib/cube\libmad.a(layer12.o)
 .comment       0x0000012d       0x29 c:/devkitPro/libogc/lib/cube\libmad.a(layer3.o)
 .comment       0x00000156       0x29 c:/devkitPro/libogc/lib/cube\libmad.a(stream.o)
 .comment       0x0000017f       0x29 c:/devkitPro/libogc/lib/cube\libmad.a(synth.o)
 .comment       0x000001a8       0x29 c:/devkitPro/libogc/lib/cube\libmad.a(timer.o)
 .comment       0x000001d1       0x29 c:/devkitPro/libogc/lib/cube\libmad.a(bit.o)
 .comment       0x000001fa       0x29 c:/devkitPro/libogc/lib/cube\libmad.a(huffman.o)
 .comment       0x00000223       0x29 c:/devkitpro/devkitppc/bin/../lib/gcc/powerpc-gekko/4.2.3/../../../../powerpc-gekko/lib\libm.a(lib_a-s_sin.o)
 .comment       0x0000024c       0x29 c:/devkitpro/devkitppc/bin/../lib/gcc/powerpc-gekko/4.2.3/../../../../powerpc-gekko/lib\libm.a(lib_a-s_sine.o)
 .comment       0x00000275       0x29 c:/devkitpro/devkitppc/bin/../lib/gcc/powerpc-gekko/4.2.3/../../../../powerpc-gekko/lib\libm.a(lib_a-s_fabs.o)
 .comment       0x0000029e       0x29 c:/devkitpro/devkitppc/bin/../lib/gcc/powerpc-gekko/4.2.3/../../../../powerpc-gekko/lib\libm.a(lib_a-s_mathcnst.o)
 .comment       0x000002c7       0x29 c:/devkitpro/devkitppc/bin/../lib/gcc/powerpc-gekko/4.2.3/../../../../powerpc-gekko/lib\libm.a(lib_a-s_numtest.o)
 .comment       0x000002f0       0x29 c:/devkitPro/libogc/lib/cube\libogc.a(console.o)
 .comment       0x00000319       0x29 c:/devkitPro/libogc/lib/cube\libogc.a(lwp.o)
 .comment       0x00000342       0x29 c:/devkitPro/libogc/lib/cube\libogc.a(lwp_objmgr.o)
 .comment       0x0000036b       0x29 c:/devkitPro/libogc/lib/cube\libogc.a(lwp_heap.o)
 .comment       0x00000394       0x29 c:/devkitPro/libogc/lib/cube\libogc.a(sys_state.o)
 .comment       0x000003bd       0x29 c:/devkitPro/libogc/lib/cube\libogc.a(video.o)
 .comment       0x000003e6       0x29 c:/devkitPro/libogc/lib/cube\libogc.a(pad.o)
 .comment       0x0000040f       0x29 c:/devkitPro/libogc/lib/cube\libogc.a(system.o)
 .comment       0x00000438       0x29 c:/devkitPro/libogc/lib/cube\libogc.a(cond.o)
 .comment       0x00000461       0x29 c:/devkitPro/libogc/lib/cube\libogc.a(audio.o)
 .comment       0x0000048a       0x29 c:/devkitPro/libogc/lib/cube\libogc.a(decrementer.o)
 .comment       0x000004b3       0x29 c:/devkitPro/libogc/lib/cube\libogc.a(message.o)
 .comment       0x000004dc       0x29 c:/devkitPro/libogc/lib/cube\libogc.a(card.o)
 .comment       0x00000505       0x29 c:/devkitPro/libogc/lib/cube\libogc.a(dsp.o)
 .comment       0x0000052e       0x29 c:/devkitPro/libogc/lib/cube\libogc.a(si.o)
 .comment       0x00000557       0x29 c:/devkitPro/libogc/lib/cube\libogc.a(console_font_8x16.o)
 .comment       0x00000580       0x29 c:/devkitPro/libogc/lib/cube\libogc.a(timesupp.o)
 .comment       0x000005a9       0x29 c:/devkitPro/libogc/lib/cube\libogc.a(lock_supp.o)
 .comment       0x000005d2       0x29 c:/devkitPro/libogc/lib/cube\libogc.a(newlibc.o)
 .comment       0x000005fb       0x29 c:/devkitPro/libogc/lib/cube\libogc.a(sbrk.o)
 .comment       0x00000624       0x29 c:/devkitPro/libogc/lib/cube\libogc.a(malloc_lock.o)
 .comment       0x0000064d       0x29 c:/devkitPro/libogc/lib/cube\libogc.a(argv.o)
 .comment       0x00000676       0x29 c:/devkitPro/libogc/lib/cube\libogc.a(lwp_priority.o)
 .comment       0x0000069f       0x29 c:/devkitPro/libogc/lib/cube\libogc.a(lwp_queue.o)
 .comment       0x000006c8       0x29 c:/devkitPro/libogc/lib/cube\libogc.a(lwp_threadq.o)
 .comment       0x000006f1       0x29 c:/devkitPro/libogc/lib/cube\libogc.a(lwp_threads.o)
 .comment       0x0000071a       0x29 c:/devkitPro/libogc/lib/cube\libogc.a(lwp_messages.o)
 .comment       0x00000743       0x29 c:/devkitPro/libogc/lib/cube\libogc.a(lwp_stack.o)
 .comment       0x0000076c       0x29 c:/devkitPro/libogc/lib/cube\libogc.a(lwp_mutex.o)
 .comment       0x00000795       0x29 c:/devkitPro/libogc/lib/cube\libogc.a(lwp_watchdog.o)
 .comment       0x000007be       0x29 c:/devkitPro/libogc/lib/cube\libogc.a(lwp_wkspace.o)
 .comment       0x000007e7       0x29 c:/devkitPro/libogc/lib/cube\libogc.a(exception.o)
 .comment       0x00000810       0x29 c:/devkitPro/libogc/lib/cube\libogc.a(irq.o)
 .comment       0x00000839       0x29 c:/devkitPro/libogc/lib/cube\libogc.a(semaphore.o)
 .comment       0x00000862       0x29 c:/devkitPro/libogc/lib/cube\libogc.a(exi.o)
 .comment       0x0000088b       0x29 c:/devkitPro/libogc/lib/cube\libogc.a(mutex.o)
 .comment       0x000008b4       0x29 c:/devkitPro/libogc/lib/cube\libogc.a(kprintf.o)
 .comment       0x000008dd       0x29 c:/devkitPro/libogc/lib/cube\libogc.a(lwp_sema.o)
 .comment       0x00000906       0x12 c:/devkitpro/devkitppc/bin/../lib/gcc/powerpc-gekko/4.2.3/../../../../powerpc-gekko/lib\libfreetype.a(ftinit.o)
 .comment       0x00000918       0x12 c:/devkitpro/devkitppc/bin/../lib/gcc/powerpc-gekko/4.2.3/../../../../powerpc-gekko/lib\libfreetype.a(ftbase.o)
 .comment       0x0000092a       0x12 c:/devkitpro/devkitppc/bin/../lib/gcc/powerpc-gekko/4.2.3/../../../../powerpc-gekko/lib\libfreetype.a(truetype.o)
 .comment       0x0000093c       0x12 c:/devkitpro/devkitppc/bin/../lib/gcc/powerpc-gekko/4.2.3/../../../../powerpc-gekko/lib\libfreetype.a(type1.o)
 .comment       0x0000094e       0x12 c:/devkitpro/devkitppc/bin/../lib/gcc/powerpc-gekko/4.2.3/../../../../powerpc-gekko/lib\libfreetype.a(cff.o)
 .comment       0x00000960       0x12 c:/devkitpro/devkitppc/bin/../lib/gcc/powerpc-gekko/4.2.3/../../../../powerpc-gekko/lib\libfreetype.a(type1cid.o)
 .comment       0x00000972       0x12 c:/devkitpro/devkitppc/bin/../lib/gcc/powerpc-gekko/4.2.3/../../../../powerpc-gekko/lib\libfreetype.a(pfr.o)
 .comment       0x00000984       0x12 c:/devkitpro/devkitppc/bin/../lib/gcc/powerpc-gekko/4.2.3/../../../../powerpc-gekko/lib\libfreetype.a(type42.o)
 .comment       0x00000996       0x12 c:/devkitpro/devkitppc/bin/../lib/gcc/powerpc-gekko/4.2.3/../../../../powerpc-gekko/lib\libfreetype.a(winfnt.o)
 .comment       0x000009a8       0x12 c:/devkitpro/devkitppc/bin/../lib/gcc/powerpc-gekko/4.2.3/../../../../powerpc-gekko/lib\libfreetype.a(pcf.o)
 .comment       0x000009ba       0x12 c:/devkitpro/devkitppc/bin/../lib/gcc/powerpc-gekko/4.2.3/../../../../powerpc-gekko/lib\libfreetype.a(bdf.o)
 .comment       0x000009cc       0x12 c:/devkitpro/devkitppc/bin/../lib/gcc/powerpc-gekko/4.2.3/../../../../powerpc-gekko/lib\libfreetype.a(sfnt.o)
 .comment       0x000009de       0x12 c:/devkitpro/devkitppc/bin/../lib/gcc/powerpc-gekko/4.2.3/../../../../powerpc-gekko/lib\libfreetype.a(autofit.o)
 .comment       0x000009f0       0x12 c:/devkitpro/devkitppc/bin/../lib/gcc/powerpc-gekko/4.2.3/../../../../powerpc-gekko/lib\libfreetype.a(pshinter.o)
 .comment       0x00000a02       0x12 c:/devkitpro/devkitppc/bin/../lib/gcc/powerpc-gekko/4.2.3/../../../../powerpc-gekko/lib\libfreetype.a(raster.o)
 .comment       0x00000a14       0x12 c:/devkitpro/devkitppc/bin/../lib/gcc/powerpc-gekko/4.2.3/../../../../powerpc-gekko/lib\libfreetype.a(smooth.o)
 .comment       0x00000a26       0x12 c:/devkitpro/devkitppc/bin/../lib/gcc/powerpc-gekko/4.2.3/../../../../powerpc-gekko/lib\libfreetype.a(ftgzip.o)
 .comment       0x00000a38       0x12 c:/devkitpro/devkitppc/bin/../lib/gcc/powerpc-gekko/4.2.3/../../../../powerpc-gekko/lib\libfreetype.a(ftlzw.o)
 .comment       0x00000a4a       0x12 c:/devkitpro/devkitppc/bin/../lib/gcc/powerpc-gekko/4.2.3/../../../../powerpc-gekko/lib\libfreetype.a(psaux.o)
 .comment       0x00000a5c       0x12 c:/devkitpro/devkitppc/bin/../lib/gcc/powerpc-gekko/4.2.3/../../../../powerpc-gekko/lib\libfreetype.a(psnames.o)
 .comment       0x00000a6e       0x12 c:/devkitpro/devkitppc/bin/../lib/gcc/powerpc-gekko/4.2.3/../../../../powerpc-gekko/lib\libfreetype.a(ftsystem.o)
 .comment       0x00000a80       0x12 c:/devkitpro/devkitppc/bin/../lib/gcc/powerpc-gekko/4.2.3/../../../../powerpc-gekko/lib\libfreetype.a(ftglyph.o)
 .comment       0x00000a92       0x12 c:/devkitpro/devkitppc/bin/../lib/gcc/powerpc-gekko/4.2.3/../../../../powerpc-gekko/lib\libfreetype.a(ftbitmap.o)
 .comment       0x00000aa4       0x12 c:/devkitpro/devkitppc/bin/../lib/gcc/powerpc-gekko/4.2.3/../../../../powerpc-gekko/lib\libjpeg.a(jpgogc.o)
 .comment       0x00000ab6       0x12 c:/devkitpro/devkitppc/bin/../lib/gcc/powerpc-gekko/4.2.3/../../../../powerpc-gekko/lib\libjpeg.a(jmemsrc.o)
 .comment       0x00000ac8       0x12 c:/devkitpro/devkitppc/bin/../lib/gcc/powerpc-gekko/4.2.3/../../../../powerpc-gekko/lib\libjpeg.a(jdapimin.o)
 .comment       0x00000ada       0x12 c:/devkitpro/devkitppc/bin/../lib/gcc/powerpc-gekko/4.2.3/../../../../powerpc-gekko/lib\libjpeg.a(jdapistd.o)
 .comment       0x00000aec       0x12 c:/devkitpro/devkitppc/bin/../lib/gcc/powerpc-gekko/4.2.3/../../../../powerpc-gekko/lib\libjpeg.a(jdinput.o)
 .comment       0x00000afe       0x12 c:/devkitpro/devkitppc/bin/../lib/gcc/powerpc-gekko/4.2.3/../../../../powerpc-gekko/lib\libjpeg.a(jdmarker.o)
 .comment       0x00000b10       0x12 c:/devkitpro/devkitppc/bin/../lib/gcc/powerpc-gekko/4.2.3/../../../../powerpc-gekko/lib\libjpeg.a(jdmaster.o)
 .comment       0x00000b22       0x12 c:/devkitpro/devkitppc/bin/../lib/gcc/powerpc-gekko/4.2.3/../../../../powerpc-gekko/lib\libjpeg.a(jdmerge.o)
 .comment       0x00000b34       0x12 c:/devkitpro/devkitppc/bin/../lib/gcc/powerpc-gekko/4.2.3/../../../../powerpc-gekko/lib\libjpeg.a(jdphuff.o)
 .comment       0x00000b46       0x12 c:/devkitpro/devkitppc/bin/../lib/gcc/powerpc-gekko/4.2.3/../../../../powerpc-gekko/lib\libjpeg.a(jdpostct.o)
 .comment       0x00000b58       0x12 c:/devkitpro/devkitppc/bin/../lib/gcc/powerpc-gekko/4.2.3/../../../../powerpc-gekko/lib\libjpeg.a(jdsample.o)
 .comment       0x00000b6a       0x12 c:/devkitpro/devkitppc/bin/../lib/gcc/powerpc-gekko/4.2.3/../../../../powerpc-gekko/lib\libjpeg.a(jerror.o)
 .comment       0x00000b7c       0x12 c:/devkitpro/devkitppc/bin/../lib/gcc/powerpc-gekko/4.2.3/../../../../powerpc-gekko/lib\libjpeg.a(jmemmgr.o)
 .comment       0x00000b8e       0x12 c:/devkitpro/devkitppc/bin/../lib/gcc/powerpc-gekko/4.2.3/../../../../powerpc-gekko/lib\libjpeg.a(jmemnobs.o)
 .comment       0x00000ba0       0x12 c:/devkitpro/devkitppc/bin/../lib/gcc/powerpc-gekko/4.2.3/../../../../powerpc-gekko/lib\libjpeg.a(jquant1.o)
 .comment       0x00000bb2       0x12 c:/devkitpro/devkitppc/bin/../lib/gcc/powerpc-gekko/4.2.3/../../../../powerpc-gekko/lib\libjpeg.a(jquant2.o)
 .comment       0x00000bc4       0x12 c:/devkitpro/devkitppc/bin/../lib/gcc/powerpc-gekko/4.2.3/../../../../powerpc-gekko/lib\libjpeg.a(jutils.o)
 .comment       0x00000bd6       0x12 c:/devkitpro/devkitppc/bin/../lib/gcc/powerpc-gekko/4.2.3/../../../../powerpc-gekko/lib\libjpeg.a(jcomapi.o)
 .comment       0x00000be8       0x12 c:/devkitpro/devkitppc/bin/../lib/gcc/powerpc-gekko/4.2.3/../../../../powerpc-gekko/lib\libjpeg.a(jdcoefct.o)
 .comment       0x00000bfa       0x12 c:/devkitpro/devkitppc/bin/../lib/gcc/powerpc-gekko/4.2.3/../../../../powerpc-gekko/lib\libjpeg.a(jdcolor.o)
 .comment       0x00000c0c       0x12 c:/devkitpro/devkitppc/bin/../lib/gcc/powerpc-gekko/4.2.3/../../../../powerpc-gekko/lib\libjpeg.a(jddctmgr.o)
 .comment       0x00000c1e       0x12 c:/devkitpro/devkitppc/bin/../lib/gcc/powerpc-gekko/4.2.3/../../../../powerpc-gekko/lib\libjpeg.a(jdhuff.o)
 .comment       0x00000c30       0x12 c:/devkitpro/devkitppc/bin/../lib/gcc/powerpc-gekko/4.2.3/../../../../powerpc-gekko/lib\libjpeg.a(jdmainct.o)
 .comment       0x00000c42       0x12 c:/devkitpro/devkitppc/bin/../lib/gcc/powerpc-gekko/4.2.3/../../../../powerpc-gekko/lib\libjpeg.a(jidctflt.o)
 .comment       0x00000c54       0x12 c:/devkitpro/devkitppc/bin/../lib/gcc/powerpc-gekko/4.2.3/../../../../powerpc-gekko/lib\libjpeg.a(jidctfst.o)
 .comment       0x00000c66       0x12 c:/devkitpro/devkitppc/bin/../lib/gcc/powerpc-gekko/4.2.3/../../../../powerpc-gekko/lib\libjpeg.a(jidctint.o)
 .comment       0x00000c78       0x12 c:/devkitpro/devkitppc/bin/../lib/gcc/powerpc-gekko/4.2.3/../../../../powerpc-gekko/lib\libjpeg.a(jidctred.o)
 .comment       0x00000c8a       0x29 c:/devkitpro/devkitppc/bin/../lib/gcc/powerpc-gekko/4.2.3\libgcc.a(_udivdi3.o)
 .comment       0x00000cb3       0x29 c:/devkitpro/devkitppc/bin/../lib/gcc/powerpc-gekko/4.2.3/../../../../powerpc-gekko/lib\libsysbase.a(abort.o)
 .comment       0x00000cdc       0x29 c:/devkitpro/devkitppc/bin/../lib/gcc/powerpc-gekko/4.2.3/../../../../powerpc-gekko/lib\libsysbase.a(iosupport.o)
 .comment       0x00000d05       0x29 c:/devkitpro/devkitppc/bin/../lib/gcc/powerpc-gekko/4.2.3/../../../../powerpc-gekko/lib\libsysbase.a(_exit.o)
 .comment       0x00000d2e       0x29 c:/devkitpro/devkitppc/bin/../lib/gcc/powerpc-gekko/4.2.3/../../../../powerpc-gekko/lib\libsysbase.a(build_argv.o)
 .comment       0x00000d57       0x29 c:/devkitpro/devkitppc/bin/../lib/gcc/powerpc-gekko/4.2.3/../../../../powerpc-gekko/lib\libsysbase.a(syscall_support.o)
 .comment       0x00000d80       0x29 c:/devkitpro/devkitppc/bin/../lib/gcc/powerpc-gekko/4.2.3/../../../../powerpc-gekko/lib\libc.a(lib_a-atol.o)
 .comment       0x00000da9       0x29 c:/devkitpro/devkitppc/bin/../lib/gcc/powerpc-gekko/4.2.3/../../../../powerpc-gekko/lib\libc.a(lib_a-calloc.o)
 .comment       0x00000dd2       0x29 c:/devkitpro/devkitppc/bin/../lib/gcc/powerpc-gekko/4.2.3/../../../../powerpc-gekko/lib\libc.a(lib_a-callocr.o)
 .comment       0x00000dfb       0x29 c:/devkitpro/devkitppc/bin/../lib/gcc/powerpc-gekko/4.2.3/../../../../powerpc-gekko/lib\libc.a(lib_a-ctime.o)
 .comment       0x00000e24       0x29 c:/devkitpro/devkitppc/bin/../lib/gcc/powerpc-gekko/4.2.3/../../../../powerpc-gekko/lib\libc.a(lib_a-ctype_.o)
 .comment       0x00000e4d       0x29 c:/devkitpro/devkitppc/bin/../lib/gcc/powerpc-gekko/4.2.3/../../../../powerpc-gekko/lib\libc.a(lib_a-errno.o)
 .comment       0x00000e76       0x29 c:/devkitpro/devkitppc/bin/../lib/gcc/powerpc-gekko/4.2.3/../../../../powerpc-gekko/lib\libc.a(lib_a-exit.o)
 .comment       0x00000e9f       0x29 c:/devkitpro/devkitppc/bin/../lib/gcc/powerpc-gekko/4.2.3/../../../../powerpc-gekko/lib\libc.a(lib_a-fclose.o)
 .comment       0x00000ec8       0x29 c:/devkitpro/devkitppc/bin/../lib/gcc/powerpc-gekko/4.2.3/../../../../powerpc-gekko/lib\libc.a(lib_a-fflush.o)
 .comment       0x00000ef1       0x29 c:/devkitpro/devkitppc/bin/../lib/gcc/powerpc-gekko/4.2.3/../../../../powerpc-gekko/lib\libc.a(lib_a-findfp.o)
 .comment       0x00000f1a       0x29 c:/devkitpro/devkitppc/bin/../lib/gcc/powerpc-gekko/4.2.3/../../../../powerpc-gekko/lib\libc.a(lib_a-fopen.o)
 .comment       0x00000f43       0x29 c:/devkitpro/devkitppc/bin/../lib/gcc/powerpc-gekko/4.2.3/../../../../powerpc-gekko/lib\libc.a(lib_a-fprintf.o)
 .comment       0x00000f6c       0x29 c:/devkitpro/devkitppc/bin/../lib/gcc/powerpc-gekko/4.2.3/../../../../powerpc-gekko/lib\libc.a(lib_a-fread.o)
 .comment       0x00000f95       0x29 c:/devkitpro/devkitppc/bin/../lib/gcc/powerpc-gekko/4.2.3/../../../../powerpc-gekko/lib\libc.a(lib_a-freer.o)
 .comment       0x00000fbe       0x29 c:/devkitpro/devkitppc/bin/../lib/gcc/powerpc-gekko/4.2.3/../../../../powerpc-gekko/lib\libc.a(lib_a-fseek.o)
 .comment       0x00000fe7       0x29 c:/devkitpro/devkitppc/bin/../lib/gcc/powerpc-gekko/4.2.3/../../../../powerpc-gekko/lib\libc.a(lib_a-ftell.o)
 .comment       0x00001010       0x29 c:/devkitpro/devkitppc/bin/../lib/gcc/powerpc-gekko/4.2.3/../../../../powerpc-gekko/lib\libc.a(lib_a-fwalk.o)
 .comment       0x00001039       0x29 c:/devkitpro/devkitppc/bin/../lib/gcc/powerpc-gekko/4.2.3/../../../../powerpc-gekko/lib\libc.a(lib_a-getenv.o)
 .comment       0x00001062       0x29 c:/devkitpro/devkitppc/bin/../lib/gcc/powerpc-gekko/4.2.3/../../../../powerpc-gekko/lib\libc.a(lib_a-getenv_r.o)
 .comment       0x0000108b       0x29 c:/devkitpro/devkitppc/bin/../lib/gcc/powerpc-gekko/4.2.3/../../../../powerpc-gekko/lib\libc.a(lib_a-impure.o)
 .comment       0x000010b4       0x29 c:/devkitpro/devkitppc/bin/../lib/gcc/powerpc-gekko/4.2.3/../../../../powerpc-gekko/lib\libc.a(lib_a-lcltime.o)
 .comment       0x000010dd       0x29 c:/devkitpro/devkitppc/bin/../lib/gcc/powerpc-gekko/4.2.3/../../../../powerpc-gekko/lib\libc.a(lib_a-lcltime_r.o)
 .comment       0x00001106       0x29 c:/devkitpro/devkitppc/bin/../lib/gcc/powerpc-gekko/4.2.3/../../../../powerpc-gekko/lib\libc.a(lib_a-makebuf.o)
 .comment       0x0000112f       0x29 c:/devkitpro/devkitppc/bin/../lib/gcc/powerpc-gekko/4.2.3/../../../../powerpc-gekko/lib\libc.a(lib_a-malign.o)
 .comment       0x00001158       0x29 c:/devkitpro/devkitppc/bin/../lib/gcc/powerpc-gekko/4.2.3/../../../../powerpc-gekko/lib\libc.a(lib_a-malignr.o)
 .comment       0x00001181       0x29 c:/devkitpro/devkitppc/bin/../lib/gcc/powerpc-gekko/4.2.3/../../../../powerpc-gekko/lib\libc.a(lib_a-malloc.o)
 .comment       0x000011aa       0x29 c:/devkitpro/devkitppc/bin/../lib/gcc/powerpc-gekko/4.2.3/../../../../powerpc-gekko/lib\libc.a(lib_a-mallocr.o)
 .comment       0x000011d3       0x29 c:/devkitpro/devkitppc/bin/../lib/gcc/powerpc-gekko/4.2.3/../../../../powerpc-gekko/lib\libc.a(lib_a-memchr.o)
 .comment       0x000011fc       0x29 c:/devkitpro/devkitppc/bin/../lib/gcc/powerpc-gekko/4.2.3/../../../../powerpc-gekko/lib\libc.a(lib_a-memcmp.o)
 .comment       0x00001225       0x29 c:/devkitpro/devkitppc/bin/../lib/gcc/powerpc-gekko/4.2.3/../../../../powerpc-gekko/lib\libc.a(lib_a-memcpy.o)
 .comment       0x0000124e       0x29 c:/devkitpro/devkitppc/bin/../lib/gcc/powerpc-gekko/4.2.3/../../../../powerpc-gekko/lib\libc.a(lib_a-memmove.o)
 .comment       0x00001277       0x29 c:/devkitpro/devkitppc/bin/../lib/gcc/powerpc-gekko/4.2.3/../../../../powerpc-gekko/lib\libc.a(lib_a-memset.o)
 .comment       0x000012a0       0x29 c:/devkitpro/devkitppc/bin/../lib/gcc/powerpc-gekko/4.2.3/../../../../powerpc-gekko/lib\libc.a(lib_a-mktm_r.o)
 .comment       0x000012c9       0x29 c:/devkitpro/devkitppc/bin/../lib/gcc/powerpc-gekko/4.2.3/../../../../powerpc-gekko/lib\libc.a(lib_a-printf.o)
 .comment       0x000012f2       0x29 c:/devkitpro/devkitppc/bin/../lib/gcc/powerpc-gekko/4.2.3/../../../../powerpc-gekko/lib\libc.a(lib_a-puts.o)
 .comment       0x0000131b       0x29 c:/devkitpro/devkitppc/bin/../lib/gcc/powerpc-gekko/4.2.3/../../../../powerpc-gekko/lib\libc.a(lib_a-qsort.o)
 .comment       0x00001344       0x29 c:/devkitpro/devkitppc/bin/../lib/gcc/powerpc-gekko/4.2.3/../../../../powerpc-gekko/lib\libc.a(lib_a-realloc.o)
 .comment       0x0000136d       0x29 c:/devkitpro/devkitppc/bin/../lib/gcc/powerpc-gekko/4.2.3/../../../../powerpc-gekko/lib\libc.a(lib_a-reallocr.o)
 .comment       0x00001396       0x29 c:/devkitpro/devkitppc/bin/../lib/gcc/powerpc-gekko/4.2.3/../../../../powerpc-gekko/lib\libc.a(lib_a-reent.o)
 .comment       0x000013bf       0x29 c:/devkitpro/devkitppc/bin/../lib/gcc/powerpc-gekko/4.2.3/../../../../powerpc-gekko/lib\libc.a(lib_a-refill.o)
 .comment       0x000013e8       0x29 c:/devkitpro/devkitppc/bin/../lib/gcc/powerpc-gekko/4.2.3/../../../../powerpc-gekko/lib\libc.a(lib_a-setvbuf.o)
 .comment       0x00001411       0x29 c:/devkitpro/devkitppc/bin/../lib/gcc/powerpc-gekko/4.2.3/../../../../powerpc-gekko/lib\libc.a(lib_a-sprintf.o)
 .comment       0x0000143a       0x29 c:/devkitpro/devkitppc/bin/../lib/gcc/powerpc-gekko/4.2.3/../../../../powerpc-gekko/lib\libc.a(lib_a-sscanf.o)
 .comment       0x00001463       0x29 c:/devkitpro/devkitppc/bin/../lib/gcc/powerpc-gekko/4.2.3/../../../../powerpc-gekko/lib\libc.a(lib_a-stdio.o)
 .comment       0x0000148c       0x29 c:/devkitpro/devkitppc/bin/../lib/gcc/powerpc-gekko/4.2.3/../../../../powerpc-gekko/lib\libc.a(lib_a-strcat.o)
 .comment       0x000014b5       0x29 c:/devkitpro/devkitppc/bin/../lib/gcc/powerpc-gekko/4.2.3/../../../../powerpc-gekko/lib\libc.a(lib_a-strcmp.o)
 .comment       0x000014de       0x29 c:/devkitpro/devkitppc/bin/../lib/gcc/powerpc-gekko/4.2.3/../../../../powerpc-gekko/lib\libc.a(lib_a-strcpy.o)
 .comment       0x00001507       0x29 c:/devkitpro/devkitppc/bin/../lib/gcc/powerpc-gekko/4.2.3/../../../../powerpc-gekko/lib\libc.a(lib_a-strlen.o)
 .comment       0x00001530       0x29 c:/devkitpro/devkitppc/bin/../lib/gcc/powerpc-gekko/4.2.3/../../../../powerpc-gekko/lib\libc.a(lib_a-strncasecmp.o)
 .comment       0x00001559       0x29 c:/devkitpro/devkitppc/bin/../lib/gcc/powerpc-gekko/4.2.3/../../../../powerpc-gekko/lib\libc.a(lib_a-strncmp.o)
 .comment       0x00001582       0x29 c:/devkitpro/devkitppc/bin/../lib/gcc/powerpc-gekko/4.2.3/../../../../powerpc-gekko/lib\libc.a(lib_a-strncpy.o)
 .comment       0x000015ab       0x29 c:/devkitpro/devkitppc/bin/../lib/gcc/powerpc-gekko/4.2.3/../../../../powerpc-gekko/lib\libc.a(lib_a-strnlen.o)
 .comment       0x000015d4       0x29 c:/devkitpro/devkitppc/bin/../lib/gcc/powerpc-gekko/4.2.3/../../../../powerpc-gekko/lib\libc.a(lib_a-strrchr.o)
 .comment       0x000015fd       0x29 c:/devkitpro/devkitppc/bin/../lib/gcc/powerpc-gekko/4.2.3/../../../../powerpc-gekko/lib\libc.a(lib_a-strtol.o)
 .comment       0x00001626       0x29 c:/devkitpro/devkitppc/bin/../lib/gcc/powerpc-gekko/4.2.3/../../../../powerpc-gekko/lib\libc.a(lib_a-syswrite.o)
 .comment       0x0000164f       0x29 c:/devkitpro/devkitppc/bin/../lib/gcc/powerpc-gekko/4.2.3/../../../../powerpc-gekko/lib\libc.a(lib_a-tzlock.o)
 .comment       0x00001678       0x29 c:/devkitpro/devkitppc/bin/../lib/gcc/powerpc-gekko/4.2.3/../../../../powerpc-gekko/lib\libc.a(lib_a-tzvars.o)
 .comment       0x000016a1       0x29 c:/devkitpro/devkitppc/bin/../lib/gcc/powerpc-gekko/4.2.3/../../../../powerpc-gekko/lib\libc.a(lib_a-vfprintf.o)
 .comment       0x000016ca       0x29 c:/devkitpro/devkitppc/bin/../lib/gcc/powerpc-gekko/4.2.3/../../../../powerpc-gekko/lib\libc.a(lib_a-vfscanf.o)
 .comment       0x000016f3       0x29 c:/devkitpro/devkitppc/bin/../lib/gcc/powerpc-gekko/4.2.3/../../../../powerpc-gekko/lib\libc.a(lib_a-wcrtomb.o)
 .comment       0x0000171c       0x29 c:/devkitpro/devkitppc/bin/../lib/gcc/powerpc-gekko/4.2.3/../../../../powerpc-gekko/lib\libc.a(lib_a-wcsrtombs.o)
 .comment       0x00001745       0x29 c:/devkitpro/devkitppc/bin/../lib/gcc/powerpc-gekko/4.2.3/../../../../powerpc-gekko/lib\libc.a(lib_a-wctomb_r.o)
 .comment       0x0000176e       0x29 c:/devkitpro/devkitppc/bin/../lib/gcc/powerpc-gekko/4.2.3/../../../../powerpc-gekko/lib\libc.a(lib_a-wsetup.o)
 .comment       0x00001797       0x29 c:/devkitpro/devkitppc/bin/../lib/gcc/powerpc-gekko/4.2.3/../../../../powerpc-gekko/lib\libc.a(lib_a-__call_atexit.o)
 .comment       0x000017c0       0x29 c:/devkitpro/devkitppc/bin/../lib/gcc/powerpc-gekko/4.2.3/../../../../powerpc-gekko/lib\libc.a(lib_a-asctime.o)
 .comment       0x000017e9       0x29 c:/devkitpro/devkitppc/bin/../lib/gcc/powerpc-gekko/4.2.3/../../../../powerpc-gekko/lib\libc.a(lib_a-asctime_r.o)
 .comment       0x00001812       0x29 c:/devkitpro/devkitppc/bin/../lib/gcc/powerpc-gekko/4.2.3/../../../../powerpc-gekko/lib\libc.a(lib_a-dtoa.o)
 .comment       0x0000183b       0x29 c:/devkitpro/devkitppc/bin/../lib/gcc/powerpc-gekko/4.2.3/../../../../powerpc-gekko/lib\libc.a(lib_a-environ.o)
 .comment       0x00001864       0x29 c:/devkitpro/devkitppc/bin/../lib/gcc/powerpc-gekko/4.2.3/../../../../powerpc-gekko/lib\libc.a(lib_a-envlock.o)
 .comment       0x0000188d       0x29 c:/devkitpro/devkitppc/bin/../lib/gcc/powerpc-gekko/4.2.3/../../../../powerpc-gekko/lib\libc.a(lib_a-flags.o)
 .comment       0x000018b6       0x29 c:/devkitpro/devkitppc/bin/../lib/gcc/powerpc-gekko/4.2.3/../../../../powerpc-gekko/lib\libc.a(lib_a-fvwrite.o)
 .comment       0x000018df       0x29 c:/devkitpro/devkitppc/bin/../lib/gcc/powerpc-gekko/4.2.3/../../../../powerpc-gekko/lib\libc.a(lib_a-gettzinfo.o)
 .comment       0x00001908       0x29 c:/devkitpro/devkitppc/bin/../lib/gcc/powerpc-gekko/4.2.3/../../../../powerpc-gekko/lib\libc.a(lib_a-iswspace.o)
 .comment       0x00001931       0x29 c:/devkitpro/devkitppc/bin/../lib/gcc/powerpc-gekko/4.2.3/../../../../powerpc-gekko/lib\libc.a(lib_a-jp2uc.o)
 .comment       0x0000195a       0x29 c:/devkitpro/devkitppc/bin/../lib/gcc/powerpc-gekko/4.2.3/../../../../powerpc-gekko/lib\libc.a(lib_a-locale.o)
 .comment       0x00001983       0x29 c:/devkitpro/devkitppc/bin/../lib/gcc/powerpc-gekko/4.2.3/../../../../powerpc-gekko/lib\libc.a(lib_a-mbrtowc.o)
 .comment       0x000019ac       0x29 c:/devkitpro/devkitppc/bin/../lib/gcc/powerpc-gekko/4.2.3/../../../../powerpc-gekko/lib\libc.a(lib_a-mbtowc_r.o)
 .comment       0x000019d5       0x29 c:/devkitpro/devkitppc/bin/../lib/gcc/powerpc-gekko/4.2.3/../../../../powerpc-gekko/lib\libc.a(lib_a-mprec.o)
 .comment       0x000019fe       0x29 c:/devkitpro/devkitppc/bin/../lib/gcc/powerpc-gekko/4.2.3/../../../../powerpc-gekko/lib\libc.a(lib_a-s_isinfd.o)
 .comment       0x00001a27       0x29 c:/devkitpro/devkitppc/bin/../lib/gcc/powerpc-gekko/4.2.3/../../../../powerpc-gekko/lib\libc.a(lib_a-s_isnand.o)
 .comment       0x00001a50       0x29 c:/devkitpro/devkitppc/bin/../lib/gcc/powerpc-gekko/4.2.3/../../../../powerpc-gekko/lib\libc.a(lib_a-sccl.o)
 .comment       0x00001a79       0x29 c:/devkitpro/devkitppc/bin/../lib/gcc/powerpc-gekko/4.2.3/../../../../powerpc-gekko/lib\libc.a(lib_a-sf_nan.o)
 .comment       0x00001aa2       0x29 c:/devkitpro/devkitppc/bin/../lib/gcc/powerpc-gekko/4.2.3/../../../../powerpc-gekko/lib\libc.a(lib_a-siprintf.o)
 .comment       0x00001acb       0x29 c:/devkitpro/devkitppc/bin/../lib/gcc/powerpc-gekko/4.2.3/../../../../powerpc-gekko/lib\libc.a(lib_a-strchr.o)
 .comment       0x00001af4       0x29 c:/devkitpro/devkitppc/bin/../lib/gcc/powerpc-gekko/4.2.3/../../../../powerpc-gekko/lib\libc.a(lib_a-strtod.o)
 .comment       0x00001b1d       0x29 c:/devkitpro/devkitppc/bin/../lib/gcc/powerpc-gekko/4.2.3/../../../../powerpc-gekko/lib\libc.a(lib_a-strtoll_r.o)
 .comment       0x00001b46       0x29 c:/devkitpro/devkitppc/bin/../lib/gcc/powerpc-gekko/4.2.3/../../../../powerpc-gekko/lib\libc.a(lib_a-strtoul.o)
 .comment       0x00001b6f       0x29 c:/devkitpro/devkitppc/bin/../lib/gcc/powerpc-gekko/4.2.3/../../../../powerpc-gekko/lib\libc.a(lib_a-strtoull_r.o)
 .comment       0x00001b98       0x29 c:/devkitpro/devkitppc/bin/../lib/gcc/powerpc-gekko/4.2.3/../../../../powerpc-gekko/lib\libc.a(lib_a-ungetc.o)
 .comment       0x00001bc1       0x29 c:/devkitpro/devkitppc/bin/../lib/gcc/powerpc-gekko/4.2.3/../../../../powerpc-gekko/lib\libc.a(lib_a-vfiprintf.o)
 .comment       0x00001bea       0x29 c:/devkitpro/devkitppc/bin/../lib/gcc/powerpc-gekko/4.2.3/../../../../powerpc-gekko/lib\libc.a(lib_a-gdtoa-gethex.o)
 .comment       0x00001c13       0x29 c:/devkitpro/devkitppc/bin/../lib/gcc/powerpc-gekko/4.2.3/../../../../powerpc-gekko/lib\libc.a(lib_a-gdtoa-hexnan.o)
 .comment       0x00001c3c       0x29 c:/devkitpro/devkitppc/bin/../lib/gcc/powerpc-gekko/4.2.3/../../../../powerpc-gekko/lib\libsysbase.a(close.o)
 .comment       0x00001c65       0x29 c:/devkitpro/devkitppc/bin/../lib/gcc/powerpc-gekko/4.2.3/../../../../powerpc-gekko/lib\libsysbase.a(fstat.o)
 .comment       0x00001c8e       0x29 c:/devkitpro/devkitppc/bin/../lib/gcc/powerpc-gekko/4.2.3/../../../../powerpc-gekko/lib\libsysbase.a(isatty.o)
 .comment       0x00001cb7       0x29 c:/devkitpro/devkitppc/bin/../lib/gcc/powerpc-gekko/4.2.3/../../../../powerpc-gekko/lib\libsysbase.a(lseek.o)
 .comment       0x00001ce0       0x29 c:/devkitpro/devkitppc/bin/../lib/gcc/powerpc-gekko/4.2.3/../../../../powerpc-gekko/lib\libsysbase.a(open.o)
 .comment       0x00001d09       0x29 c:/devkitpro/devkitppc/bin/../lib/gcc/powerpc-gekko/4.2.3/../../../../powerpc-gekko/lib\libsysbase.a(read.o)
 .comment       0x00001d32       0x29 c:/devkitpro/devkitppc/bin/../lib/gcc/powerpc-gekko/4.2.3/../../../../powerpc-gekko/lib\libsysbase.a(sbrk.o)
 .comment       0x00001d5b       0x29 c:/devkitpro/devkitppc/bin/../lib/gcc/powerpc-gekko/4.2.3/../../../../powerpc-gekko/lib\libsysbase.a(write.o)
 .comment       0x00001d84       0x29 c:/devkitpro/devkitppc/bin/../lib/gcc/powerpc-gekko/4.2.3/../../../../powerpc-gekko/lib\libsysbase.a(flock.o)
 .comment       0x00001dad       0x29 c:/devkitpro/devkitppc/bin/../lib/gcc/powerpc-gekko/4.2.3/../../../../powerpc-gekko/lib\libsysbase.a(handle_manager.o)
 .comment       0x00001dd6       0x29 c:/devkitpro/devkitppc/bin/../lib/gcc/powerpc-gekko/4.2.3\libgcc.a(_umoddi3.o)
 .comment       0x00001dff       0x29 c:/devkitpro/devkitppc/bin/../lib/gcc/powerpc-gekko/4.2.3/crtend.o
 .comment       0x00001e28        0xe c:/devkitpro/devkitppc/bin/../lib/gcc/powerpc-gekko/4.2.3/ecrtn.o

.debug
 *(.debug)

.line
 *(.line)

.debug_srcinfo
 *(.debug_srcinfo)

.debug_sfnames
 *(.debug_sfnames)

.debug_aranges  0x00000000      0x3c0
 *(.debug_aranges)
 .debug_aranges
                0x00000000       0x20 c:/devkitpro/devkitppc/bin/../lib/gcc/powerpc-gekko/4.2.3/../../../../powerpc-gekko/lib/crtmain.o
 .debug_aranges
                0x00000020       0x88 freetype.o
 .debug_aranges
                0x000000a8       0x38 template.o
 .debug_aranges
                0x000000e0       0x20 c:/devkitpro/devkitppc/bin/../lib/gcc/powerpc-gekko/4.2.3/../../../../powerpc-gekko/lib\libfreetype.a(ftinit.o)
 .debug_aranges
                0x00000100       0x20 c:/devkitpro/devkitppc/bin/../lib/gcc/powerpc-gekko/4.2.3/../../../../powerpc-gekko/lib\libfreetype.a(ftbase.o)
 .debug_aranges
                0x00000120       0x20 c:/devkitpro/devkitppc/bin/../lib/gcc/powerpc-gekko/4.2.3/../../../../powerpc-gekko/lib\libfreetype.a(truetype.o)
 .debug_aranges
                0x00000140       0x20 c:/devkitpro/devkitppc/bin/../lib/gcc/powerpc-gekko/4.2.3/../../../../powerpc-gekko/lib\libfreetype.a(type1.o)
 .debug_aranges
                0x00000160       0x20 c:/devkitpro/devkitppc/bin/../lib/gcc/powerpc-gekko/4.2.3/../../../../powerpc-gekko/lib\libfreetype.a(cff.o)
 .debug_aranges
                0x00000180       0x20 c:/devkitpro/devkitppc/bin/../lib/gcc/powerpc-gekko/4.2.3/../../../../powerpc-gekko/lib\libfreetype.a(type1cid.o)
 .debug_aranges
                0x000001a0       0x20 c:/devkitpro/devkitppc/bin/../lib/gcc/powerpc-gekko/4.2.3/../../../../powerpc-gekko/lib\libfreetype.a(pfr.o)
 .debug_aranges
                0x000001c0       0x20 c:/devkitpro/devkitppc/bin/../lib/gcc/powerpc-gekko/4.2.3/../../../../powerpc-gekko/lib\libfreetype.a(type42.o)
 .debug_aranges
                0x000001e0       0x20 c:/devkitpro/devkitppc/bin/../lib/gcc/powerpc-gekko/4.2.3/../../../../powerpc-gekko/lib\libfreetype.a(winfnt.o)
 .debug_aranges
                0x00000200       0x20 c:/devkitpro/devkitppc/bin/../lib/gcc/powerpc-gekko/4.2.3/../../../../powerpc-gekko/lib\libfreetype.a(pcf.o)
 .debug_aranges
                0x00000220       0x20 c:/devkitpro/devkitppc/bin/../lib/gcc/powerpc-gekko/4.2.3/../../../../powerpc-gekko/lib\libfreetype.a(bdf.o)
 .debug_aranges
                0x00000240       0x20 c:/devkitpro/devkitppc/bin/../lib/gcc/powerpc-gekko/4.2.3/../../../../powerpc-gekko/lib\libfreetype.a(sfnt.o)
 .debug_aranges
                0x00000260       0x20 c:/devkitpro/devkitppc/bin/../lib/gcc/powerpc-gekko/4.2.3/../../../../powerpc-gekko/lib\libfreetype.a(autofit.o)
 .debug_aranges
                0x00000280       0x20 c:/devkitpro/devkitppc/bin/../lib/gcc/powerpc-gekko/4.2.3/../../../../powerpc-gekko/lib\libfreetype.a(pshinter.o)
 .debug_aranges
                0x000002a0       0x20 c:/devkitpro/devkitppc/bin/../lib/gcc/powerpc-gekko/4.2.3/../../../../powerpc-gekko/lib\libfreetype.a(raster.o)
 .debug_aranges
                0x000002c0       0x20 c:/devkitpro/devkitppc/bin/../lib/gcc/powerpc-gekko/4.2.3/../../../../powerpc-gekko/lib\libfreetype.a(smooth.o)
 .debug_aranges
                0x000002e0       0x20 c:/devkitpro/devkitppc/bin/../lib/gcc/powerpc-gekko/4.2.3/../../../../powerpc-gekko/lib\libfreetype.a(ftgzip.o)
 .debug_aranges
                0x00000300       0x20 c:/devkitpro/devkitppc/bin/../lib/gcc/powerpc-gekko/4.2.3/../../../../powerpc-gekko/lib\libfreetype.a(ftlzw.o)
 .debug_aranges
                0x00000320       0x20 c:/devkitpro/devkitppc/bin/../lib/gcc/powerpc-gekko/4.2.3/../../../../powerpc-gekko/lib\libfreetype.a(psaux.o)
 .debug_aranges
                0x00000340       0x20 c:/devkitpro/devkitppc/bin/../lib/gcc/powerpc-gekko/4.2.3/../../../../powerpc-gekko/lib\libfreetype.a(psnames.o)
 .debug_aranges
                0x00000360       0x20 c:/devkitpro/devkitppc/bin/../lib/gcc/powerpc-gekko/4.2.3/../../../../powerpc-gekko/lib\libfreetype.a(ftsystem.o)
 .debug_aranges
                0x00000380       0x20 c:/devkitpro/devkitppc/bin/../lib/gcc/powerpc-gekko/4.2.3/../../../../powerpc-gekko/lib\libfreetype.a(ftglyph.o)
 .debug_aranges
                0x000003a0       0x20 c:/devkitpro/devkitppc/bin/../lib/gcc/powerpc-gekko/4.2.3/../../../../powerpc-gekko/lib\libfreetype.a(ftbitmap.o)

.debug_pubnames
                0x00000000     0x1804
 *(.debug_pubnames)
 .debug_pubnames
                0x00000000       0x20 c:/devkitpro/devkitppc/bin/../lib/gcc/powerpc-gekko/4.2.3/../../../../powerpc-gekko/lib/crtmain.o
 .debug_pubnames
                0x00000020       0xfb freetype.o
 .debug_pubnames
                0x0000011b       0xf8 template.o
 .debug_pubnames
                0x00000213       0x57 c:/devkitpro/devkitppc/bin/../lib/gcc/powerpc-gekko/4.2.3/../../../../powerpc-gekko/lib\libfreetype.a(ftinit.o)
 .debug_pubnames
                0x0000026a      0xd84 c:/devkitpro/devkitppc/bin/../lib/gcc/powerpc-gekko/4.2.3/../../../../powerpc-gekko/lib\libfreetype.a(ftbase.o)
 .debug_pubnames
                0x00000fee       0x26 c:/devkitpro/devkitppc/bin/../lib/gcc/powerpc-gekko/4.2.3/../../../../powerpc-gekko/lib\libfreetype.a(truetype.o)
 .debug_pubnames
                0x00001014       0x26 c:/devkitpro/devkitppc/bin/../lib/gcc/powerpc-gekko/4.2.3/../../../../powerpc-gekko/lib\libfreetype.a(type1.o)
 .debug_pubnames
                0x0000103a       0x66 c:/devkitpro/devkitppc/bin/../lib/gcc/powerpc-gekko/4.2.3/../../../../powerpc-gekko/lib\libfreetype.a(cff.o)
 .debug_pubnames
                0x000010a0       0x29 c:/devkitpro/devkitppc/bin/../lib/gcc/powerpc-gekko/4.2.3/../../../../powerpc-gekko/lib\libfreetype.a(type1cid.o)
 .debug_pubnames
                0x000010c9       0x5a c:/devkitpro/devkitppc/bin/../lib/gcc/powerpc-gekko/4.2.3/../../../../powerpc-gekko/lib\libfreetype.a(pfr.o)
 .debug_pubnames
                0x00001123       0x27 c:/devkitpro/devkitppc/bin/../lib/gcc/powerpc-gekko/4.2.3/../../../../powerpc-gekko/lib\libfreetype.a(type42.o)
 .debug_pubnames
                0x0000114a       0x2a c:/devkitpro/devkitppc/bin/../lib/gcc/powerpc-gekko/4.2.3/../../../../powerpc-gekko/lib\libfreetype.a(winfnt.o)
 .debug_pubnames
                0x00001174       0x3a c:/devkitpro/devkitppc/bin/../lib/gcc/powerpc-gekko/4.2.3/../../../../powerpc-gekko/lib\libfreetype.a(pcf.o)
 .debug_pubnames
                0x000011ae       0x3a c:/devkitpro/devkitppc/bin/../lib/gcc/powerpc-gekko/4.2.3/../../../../powerpc-gekko/lib\libfreetype.a(bdf.o)
 .debug_pubnames
                0x000011e8       0xcb c:/devkitpro/devkitppc/bin/../lib/gcc/powerpc-gekko/4.2.3/../../../../powerpc-gekko/lib\libfreetype.a(sfnt.o)
 .debug_pubnames
                0x000012b3       0x91 c:/devkitpro/devkitppc/bin/../lib/gcc/powerpc-gekko/4.2.3/../../../../powerpc-gekko/lib\libfreetype.a(autofit.o)
 .debug_pubnames
                0x00001344       0x3f c:/devkitpro/devkitppc/bin/../lib/gcc/powerpc-gekko/4.2.3/../../../../powerpc-gekko/lib\libfreetype.a(pshinter.o)
 .debug_pubnames
                0x00001383       0x65 c:/devkitpro/devkitppc/bin/../lib/gcc/powerpc-gekko/4.2.3/../../../../powerpc-gekko/lib\libfreetype.a(raster.o)
 .debug_pubnames
                0x000013e8       0x86 c:/devkitpro/devkitppc/bin/../lib/gcc/powerpc-gekko/4.2.3/../../../../powerpc-gekko/lib\libfreetype.a(smooth.o)
 .debug_pubnames
                0x0000146e       0x29 c:/devkitpro/devkitppc/bin/../lib/gcc/powerpc-gekko/4.2.3/../../../../powerpc-gekko/lib\libfreetype.a(ftgzip.o)
 .debug_pubnames
                0x00001497       0x7b c:/devkitpro/devkitppc/bin/../lib/gcc/powerpc-gekko/4.2.3/../../../../powerpc-gekko/lib\libfreetype.a(ftlzw.o)
 .debug_pubnames
                0x00001512      0x11a c:/devkitpro/devkitppc/bin/../lib/gcc/powerpc-gekko/4.2.3/../../../../powerpc-gekko/lib\libfreetype.a(psaux.o)
 .debug_pubnames
                0x0000162c       0x2b c:/devkitpro/devkitppc/bin/../lib/gcc/powerpc-gekko/4.2.3/../../../../powerpc-gekko/lib\libfreetype.a(psnames.o)
 .debug_pubnames
                0x00001657       0x4a c:/devkitpro/devkitppc/bin/../lib/gcc/powerpc-gekko/4.2.3/../../../../powerpc-gekko/lib\libfreetype.a(ftsystem.o)
 .debug_pubnames
                0x000016a1       0xec c:/devkitpro/devkitppc/bin/../lib/gcc/powerpc-gekko/4.2.3/../../../../powerpc-gekko/lib\libfreetype.a(ftglyph.o)
 .debug_pubnames
                0x0000178d       0x77 c:/devkitpro/devkitppc/bin/../lib/gcc/powerpc-gekko/4.2.3/../../../../powerpc-gekko/lib\libfreetype.a(ftbitmap.o)

.debug_info     0x00000000    0x6732a
 *(.debug_info)
 .debug_info    0x00000000       0xfc c:/devkitpro/devkitppc/bin/../lib/gcc/powerpc-gekko/4.2.3/../../../../powerpc-gekko/lib/crtmain.o
 .debug_info    0x000000fc     0x144f freetype.o
 .debug_info    0x0000154b      0x5a5 template.o
 .debug_info    0x00001af0     0x1eff c:/devkitpro/devkitppc/bin/../lib/gcc/powerpc-gekko/4.2.3/../../../../powerpc-gekko/lib\libfreetype.a(ftinit.o)
 .debug_info    0x000039ef     0x9a28 c:/devkitpro/devkitppc/bin/../lib/gcc/powerpc-gekko/4.2.3/../../../../powerpc-gekko/lib\libfreetype.a(ftbase.o)
 .debug_info    0x0000d417     0x6542 c:/devkitpro/devkitppc/bin/../lib/gcc/powerpc-gekko/4.2.3/../../../../powerpc-gekko/lib\libfreetype.a(truetype.o)
 .debug_info    0x00013959     0x678d c:/devkitpro/devkitppc/bin/../lib/gcc/powerpc-gekko/4.2.3/../../../../powerpc-gekko/lib\libfreetype.a(type1.o)
 .debug_info    0x0001a0e6     0x861d c:/devkitpro/devkitppc/bin/../lib/gcc/powerpc-gekko/4.2.3/../../../../powerpc-gekko/lib\libfreetype.a(cff.o)
 .debug_info    0x00022703     0x50c6 c:/devkitpro/devkitppc/bin/../lib/gcc/powerpc-gekko/4.2.3/../../../../powerpc-gekko/lib\libfreetype.a(type1cid.o)
 .debug_info    0x000277c9     0x4d1f c:/devkitpro/devkitppc/bin/../lib/gcc/powerpc-gekko/4.2.3/../../../../powerpc-gekko/lib\libfreetype.a(pfr.o)
 .debug_info    0x0002c4e8     0x4c27 c:/devkitpro/devkitppc/bin/../lib/gcc/powerpc-gekko/4.2.3/../../../../powerpc-gekko/lib\libfreetype.a(type42.o)
 .debug_info    0x0003110f     0x2b05 c:/devkitpro/devkitppc/bin/../lib/gcc/powerpc-gekko/4.2.3/../../../../powerpc-gekko/lib\libfreetype.a(winfnt.o)
 .debug_info    0x00033c14     0x374b c:/devkitpro/devkitppc/bin/../lib/gcc/powerpc-gekko/4.2.3/../../../../powerpc-gekko/lib\libfreetype.a(pcf.o)
 .debug_info    0x0003735f     0x41a7 c:/devkitpro/devkitppc/bin/../lib/gcc/powerpc-gekko/4.2.3/../../../../powerpc-gekko/lib\libfreetype.a(bdf.o)
 .debug_info    0x0003b506     0x8ea2 c:/devkitpro/devkitppc/bin/../lib/gcc/powerpc-gekko/4.2.3/../../../../powerpc-gekko/lib\libfreetype.a(sfnt.o)
 .debug_info    0x000443a8     0x605d c:/devkitpro/devkitppc/bin/../lib/gcc/powerpc-gekko/4.2.3/../../../../powerpc-gekko/lib\libfreetype.a(autofit.o)
 .debug_info    0x0004a405     0x5c68 c:/devkitpro/devkitppc/bin/../lib/gcc/powerpc-gekko/4.2.3/../../../../powerpc-gekko/lib\libfreetype.a(pshinter.o)
 .debug_info    0x0005006d     0x398c c:/devkitpro/devkitppc/bin/../lib/gcc/powerpc-gekko/4.2.3/../../../../powerpc-gekko/lib\libfreetype.a(raster.o)
 .debug_info    0x000539f9     0x3539 c:/devkitpro/devkitppc/bin/../lib/gcc/powerpc-gekko/4.2.3/../../../../powerpc-gekko/lib\libfreetype.a(smooth.o)
 .debug_info    0x00056f32     0x1a98 c:/devkitpro/devkitppc/bin/../lib/gcc/powerpc-gekko/4.2.3/../../../../powerpc-gekko/lib\libfreetype.a(ftgzip.o)
 .debug_info    0x000589ca      0xcd2 c:/devkitpro/devkitppc/bin/../lib/gcc/powerpc-gekko/4.2.3/../../../../powerpc-gekko/lib\libfreetype.a(ftlzw.o)
 .debug_info    0x0005969c     0x60d7 c:/devkitpro/devkitppc/bin/../lib/gcc/powerpc-gekko/4.2.3/../../../../powerpc-gekko/lib\libfreetype.a(psaux.o)
 .debug_info    0x0005f773     0x269d c:/devkitpro/devkitppc/bin/../lib/gcc/powerpc-gekko/4.2.3/../../../../powerpc-gekko/lib\libfreetype.a(psnames.o)
 .debug_info    0x00061e10      0xcd8 c:/devkitpro/devkitppc/bin/../lib/gcc/powerpc-gekko/4.2.3/../../../../powerpc-gekko/lib\libfreetype.a(ftsystem.o)
 .debug_info    0x00062ae8     0x2550 c:/devkitpro/devkitppc/bin/../lib/gcc/powerpc-gekko/4.2.3/../../../../powerpc-gekko/lib\libfreetype.a(ftglyph.o)
 .debug_info    0x00065038     0x22f2 c:/devkitpro/devkitppc/bin/../lib/gcc/powerpc-gekko/4.2.3/../../../../powerpc-gekko/lib\libfreetype.a(ftbitmap.o)

.debug_abbrev   0x00000000     0x4e1f
 *(.debug_abbrev)
 .debug_abbrev  0x00000000       0x7e c:/devkitpro/devkitppc/bin/../lib/gcc/powerpc-gekko/4.2.3/../../../../powerpc-gekko/lib/crtmain.o
 .debug_abbrev  0x0000007e      0x33e freetype.o
 .debug_abbrev  0x000003bc      0x1bd template.o
 .debug_abbrev  0x00000579      0x1a8 c:/devkitpro/devkitppc/bin/../lib/gcc/powerpc-gekko/4.2.3/../../../../powerpc-gekko/lib\libfreetype.a(ftinit.o)
 .debug_abbrev  0x00000721      0x403 c:/devkitpro/devkitppc/bin/../lib/gcc/powerpc-gekko/4.2.3/../../../../powerpc-gekko/lib\libfreetype.a(ftbase.o)
 .debug_abbrev  0x00000b24      0x363 c:/devkitpro/devkitppc/bin/../lib/gcc/powerpc-gekko/4.2.3/../../../../powerpc-gekko/lib\libfreetype.a(truetype.o)
 .debug_abbrev  0x00000e87      0x399 c:/devkitpro/devkitppc/bin/../lib/gcc/powerpc-gekko/4.2.3/../../../../powerpc-gekko/lib\libfreetype.a(type1.o)
 .debug_abbrev  0x00001220      0x39d c:/devkitpro/devkitppc/bin/../lib/gcc/powerpc-gekko/4.2.3/../../../../powerpc-gekko/lib\libfreetype.a(cff.o)
 .debug_abbrev  0x000015bd      0x379 c:/devkitpro/devkitppc/bin/../lib/gcc/powerpc-gekko/4.2.3/../../../../powerpc-gekko/lib\libfreetype.a(type1cid.o)
 .debug_abbrev  0x00001936      0x365 c:/devkitpro/devkitppc/bin/../lib/gcc/powerpc-gekko/4.2.3/../../../../powerpc-gekko/lib\libfreetype.a(pfr.o)
 .debug_abbrev  0x00001c9b      0x374 c:/devkitpro/devkitppc/bin/../lib/gcc/powerpc-gekko/4.2.3/../../../../powerpc-gekko/lib\libfreetype.a(type42.o)
 .debug_abbrev  0x0000200f      0x29c c:/devkitpro/devkitppc/bin/../lib/gcc/powerpc-gekko/4.2.3/../../../../powerpc-gekko/lib\libfreetype.a(winfnt.o)
 .debug_abbrev  0x000022ab      0x356 c:/devkitpro/devkitppc/bin/../lib/gcc/powerpc-gekko/4.2.3/../../../../powerpc-gekko/lib\libfreetype.a(pcf.o)
 .debug_abbrev  0x00002601      0x3a1 c:/devkitpro/devkitppc/bin/../lib/gcc/powerpc-gekko/4.2.3/../../../../powerpc-gekko/lib\libfreetype.a(bdf.o)
 .debug_abbrev  0x000029a2      0x3c9 c:/devkitpro/devkitppc/bin/../lib/gcc/powerpc-gekko/4.2.3/../../../../powerpc-gekko/lib\libfreetype.a(sfnt.o)
 .debug_abbrev  0x00002d6b      0x390 c:/devkitpro/devkitppc/bin/../lib/gcc/powerpc-gekko/4.2.3/../../../../powerpc-gekko/lib\libfreetype.a(autofit.o)
 .debug_abbrev  0x000030fb      0x38b c:/devkitpro/devkitppc/bin/../lib/gcc/powerpc-gekko/4.2.3/../../../../powerpc-gekko/lib\libfreetype.a(pshinter.o)
 .debug_abbrev  0x00003486      0x30f c:/devkitpro/devkitppc/bin/../lib/gcc/powerpc-gekko/4.2.3/../../../../powerpc-gekko/lib\libfreetype.a(raster.o)
 .debug_abbrev  0x00003795      0x314 c:/devkitpro/devkitppc/bin/../lib/gcc/powerpc-gekko/4.2.3/../../../../powerpc-gekko/lib\libfreetype.a(smooth.o)
 .debug_abbrev  0x00003aa9      0x36d c:/devkitpro/devkitppc/bin/../lib/gcc/powerpc-gekko/4.2.3/../../../../powerpc-gekko/lib\libfreetype.a(ftgzip.o)
 .debug_abbrev  0x00003e16      0x33c c:/devkitpro/devkitppc/bin/../lib/gcc/powerpc-gekko/4.2.3/../../../../powerpc-gekko/lib\libfreetype.a(ftlzw.o)
 .debug_abbrev  0x00004152      0x385 c:/devkitpro/devkitppc/bin/../lib/gcc/powerpc-gekko/4.2.3/../../../../powerpc-gekko/lib\libfreetype.a(psaux.o)
 .debug_abbrev  0x000044d7      0x222 c:/devkitpro/devkitppc/bin/../lib/gcc/powerpc-gekko/4.2.3/../../../../powerpc-gekko/lib\libfreetype.a(psnames.o)
 .debug_abbrev  0x000046f9      0x204 c:/devkitpro/devkitppc/bin/../lib/gcc/powerpc-gekko/4.2.3/../../../../powerpc-gekko/lib\libfreetype.a(ftsystem.o)
 .debug_abbrev  0x000048fd      0x2c5 c:/devkitpro/devkitppc/bin/../lib/gcc/powerpc-gekko/4.2.3/../../../../powerpc-gekko/lib\libfreetype.a(ftglyph.o)
 .debug_abbrev  0x00004bc2      0x25d c:/devkitpro/devkitppc/bin/../lib/gcc/powerpc-gekko/4.2.3/../../../../powerpc-gekko/lib\libfreetype.a(ftbitmap.o)

.debug_line     0x00000000    0x102d3
 *(.debug_line)
 .debug_line    0x00000000       0x7d c:/devkitpro/devkitppc/bin/../lib/gcc/powerpc-gekko/4.2.3/../../../../powerpc-gekko/lib/crtmain.o
 .debug_line    0x0000007d      0x3e0 freetype.o
 .debug_line    0x0000045d      0x388 template.o
 .debug_line    0x000007e5      0x1c4 c:/devkitpro/devkitppc/bin/../lib/gcc/powerpc-gekko/4.2.3/../../../../powerpc-gekko/lib\libfreetype.a(ftinit.o)
 .debug_line    0x000009a9     0x1db7 c:/devkitpro/devkitppc/bin/../lib/gcc/powerpc-gekko/4.2.3/../../../../powerpc-gekko/lib\libfreetype.a(ftbase.o)
 .debug_line    0x00002760      0xe0c c:/devkitpro/devkitppc/bin/../lib/gcc/powerpc-gekko/4.2.3/../../../../powerpc-gekko/lib\libfreetype.a(truetype.o)
 .debug_line    0x0000356c     0x1123 c:/devkitpro/devkitppc/bin/../lib/gcc/powerpc-gekko/4.2.3/../../../../powerpc-gekko/lib\libfreetype.a(type1.o)
 .debug_line    0x0000468f     0x13e1 c:/devkitpro/devkitppc/bin/../lib/gcc/powerpc-gekko/4.2.3/../../../../powerpc-gekko/lib\libfreetype.a(cff.o)
 .debug_line    0x00005a70      0x7d8 c:/devkitpro/devkitppc/bin/../lib/gcc/powerpc-gekko/4.2.3/../../../../powerpc-gekko/lib\libfreetype.a(type1cid.o)
 .debug_line    0x00006248      0xe08 c:/devkitpro/devkitppc/bin/../lib/gcc/powerpc-gekko/4.2.3/../../../../powerpc-gekko/lib\libfreetype.a(pfr.o)
 .debug_line    0x00007050      0x903 c:/devkitpro/devkitppc/bin/../lib/gcc/powerpc-gekko/4.2.3/../../../../powerpc-gekko/lib\libfreetype.a(type42.o)
 .debug_line    0x00007953      0x478 c:/devkitpro/devkitppc/bin/../lib/gcc/powerpc-gekko/4.2.3/../../../../powerpc-gekko/lib\libfreetype.a(winfnt.o)
 .debug_line    0x00007dcb      0x727 c:/devkitpro/devkitppc/bin/../lib/gcc/powerpc-gekko/4.2.3/../../../../powerpc-gekko/lib\libfreetype.a(pcf.o)
 .debug_line    0x000084f2      0xb62 c:/devkitpro/devkitppc/bin/../lib/gcc/powerpc-gekko/4.2.3/../../../../powerpc-gekko/lib\libfreetype.a(bdf.o)
 .debug_line    0x00009054     0x17f4 c:/devkitpro/devkitppc/bin/../lib/gcc/powerpc-gekko/4.2.3/../../../../powerpc-gekko/lib\libfreetype.a(sfnt.o)
 .debug_line    0x0000a848     0x12eb c:/devkitpro/devkitppc/bin/../lib/gcc/powerpc-gekko/4.2.3/../../../../powerpc-gekko/lib\libfreetype.a(autofit.o)
 .debug_line    0x0000bb33      0xe12 c:/devkitpro/devkitppc/bin/../lib/gcc/powerpc-gekko/4.2.3/../../../../powerpc-gekko/lib\libfreetype.a(pshinter.o)
 .debug_line    0x0000c945      0xa53 c:/devkitpro/devkitppc/bin/../lib/gcc/powerpc-gekko/4.2.3/../../../../powerpc-gekko/lib\libfreetype.a(raster.o)
 .debug_line    0x0000d398      0x86d c:/devkitpro/devkitppc/bin/../lib/gcc/powerpc-gekko/4.2.3/../../../../powerpc-gekko/lib\libfreetype.a(smooth.o)
 .debug_line    0x0000dc05      0x915 c:/devkitpro/devkitppc/bin/../lib/gcc/powerpc-gekko/4.2.3/../../../../powerpc-gekko/lib\libfreetype.a(ftgzip.o)
 .debug_line    0x0000e51a      0x350 c:/devkitpro/devkitppc/bin/../lib/gcc/powerpc-gekko/4.2.3/../../../../powerpc-gekko/lib\libfreetype.a(ftlzw.o)
 .debug_line    0x0000e86a      0xdda c:/devkitpro/devkitppc/bin/../lib/gcc/powerpc-gekko/4.2.3/../../../../powerpc-gekko/lib\libfreetype.a(psaux.o)
 .debug_line    0x0000f644      0x34d c:/devkitpro/devkitppc/bin/../lib/gcc/powerpc-gekko/4.2.3/../../../../powerpc-gekko/lib\libfreetype.a(psnames.o)
 .debug_line    0x0000f991      0x219 c:/devkitpro/devkitppc/bin/../lib/gcc/powerpc-gekko/4.2.3/../../../../powerpc-gekko/lib\libfreetype.a(ftsystem.o)
 .debug_line    0x0000fbaa      0x3b2 c:/devkitpro/devkitppc/bin/../lib/gcc/powerpc-gekko/4.2.3/../../../../powerpc-gekko/lib\libfreetype.a(ftglyph.o)
 .debug_line    0x0000ff5c      0x377 c:/devkitpro/devkitppc/bin/../lib/gcc/powerpc-gekko/4.2.3/../../../../powerpc-gekko/lib\libfreetype.a(ftbitmap.o)

.debug_frame    0x00000000     0x871c
 *(.debug_frame)
 .debug_frame   0x00000000       0x30 c:/devkitpro/devkitppc/bin/../lib/gcc/powerpc-gekko/4.2.3/../../../../powerpc-gekko/lib/crtmain.o
 .debug_frame   0x00000030      0x1b8 freetype.o
 .debug_frame   0x000001e8       0x80 template.o
 .debug_frame   0x00000268       0x88 c:/devkitpro/devkitppc/bin/../lib/gcc/powerpc-gekko/4.2.3/../../../../powerpc-gekko/lib\libfreetype.a(ftinit.o)
 .debug_frame   0x000002f0     0x1c94 c:/devkitpro/devkitppc/bin/../lib/gcc/powerpc-gekko/4.2.3/../../../../powerpc-gekko/lib\libfreetype.a(ftbase.o)
 .debug_frame   0x00001f84      0x5b0 c:/devkitpro/devkitppc/bin/../lib/gcc/powerpc-gekko/4.2.3/../../../../powerpc-gekko/lib\libfreetype.a(truetype.o)
 .debug_frame   0x00002534      0x880 c:/devkitpro/devkitppc/bin/../lib/gcc/powerpc-gekko/4.2.3/../../../../powerpc-gekko/lib\libfreetype.a(type1.o)
 .debug_frame   0x00002db4      0x8e0 c:/devkitpro/devkitppc/bin/../lib/gcc/powerpc-gekko/4.2.3/../../../../powerpc-gekko/lib\libfreetype.a(cff.o)
 .debug_frame   0x00003694      0x2bc c:/devkitpro/devkitppc/bin/../lib/gcc/powerpc-gekko/4.2.3/../../../../powerpc-gekko/lib\libfreetype.a(type1cid.o)
 .debug_frame   0x00003950      0x440 c:/devkitpro/devkitppc/bin/../lib/gcc/powerpc-gekko/4.2.3/../../../../powerpc-gekko/lib\libfreetype.a(pfr.o)
 .debug_frame   0x00003d90      0x40c c:/devkitpro/devkitppc/bin/../lib/gcc/powerpc-gekko/4.2.3/../../../../powerpc-gekko/lib\libfreetype.a(type42.o)
 .debug_frame   0x0000419c      0x1b4 c:/devkitpro/devkitppc/bin/../lib/gcc/powerpc-gekko/4.2.3/../../../../powerpc-gekko/lib\libfreetype.a(winfnt.o)
 .debug_frame   0x00004350      0x290 c:/devkitpro/devkitppc/bin/../lib/gcc/powerpc-gekko/4.2.3/../../../../powerpc-gekko/lib\libfreetype.a(pcf.o)
 .debug_frame   0x000045e0      0x510 c:/devkitpro/devkitppc/bin/../lib/gcc/powerpc-gekko/4.2.3/../../../../powerpc-gekko/lib\libfreetype.a(bdf.o)
 .debug_frame   0x00004af0      0xec0 c:/devkitpro/devkitppc/bin/../lib/gcc/powerpc-gekko/4.2.3/../../../../powerpc-gekko/lib\libfreetype.a(sfnt.o)
 .debug_frame   0x000059b0      0x780 c:/devkitpro/devkitppc/bin/../lib/gcc/powerpc-gekko/4.2.3/../../../../powerpc-gekko/lib\libfreetype.a(autofit.o)
 .debug_frame   0x00006130      0x780 c:/devkitpro/devkitppc/bin/../lib/gcc/powerpc-gekko/4.2.3/../../../../powerpc-gekko/lib\libfreetype.a(pshinter.o)
 .debug_frame   0x000068b0      0x464 c:/devkitpro/devkitppc/bin/../lib/gcc/powerpc-gekko/4.2.3/../../../../powerpc-gekko/lib\libfreetype.a(raster.o)
 .debug_frame   0x00006d14      0x444 c:/devkitpro/devkitppc/bin/../lib/gcc/powerpc-gekko/4.2.3/../../../../powerpc-gekko/lib\libfreetype.a(smooth.o)
 .debug_frame   0x00007158      0x31c c:/devkitpro/devkitppc/bin/../lib/gcc/powerpc-gekko/4.2.3/../../../../powerpc-gekko/lib\libfreetype.a(ftgzip.o)
 .debug_frame   0x00007474      0x204 c:/devkitpro/devkitppc/bin/../lib/gcc/powerpc-gekko/4.2.3/../../../../powerpc-gekko/lib\libfreetype.a(ftlzw.o)
 .debug_frame   0x00007678      0xa34 c:/devkitpro/devkitppc/bin/../lib/gcc/powerpc-gekko/4.2.3/../../../../powerpc-gekko/lib\libfreetype.a(psaux.o)
 .debug_frame   0x000080ac      0x11c c:/devkitpro/devkitppc/bin/../lib/gcc/powerpc-gekko/4.2.3/../../../../powerpc-gekko/lib\libfreetype.a(psnames.o)
 .debug_frame   0x000081c8      0x138 c:/devkitpro/devkitppc/bin/../lib/gcc/powerpc-gekko/4.2.3/../../../../powerpc-gekko/lib\libfreetype.a(ftsystem.o)
 .debug_frame   0x00008300      0x32c c:/devkitpro/devkitppc/bin/../lib/gcc/powerpc-gekko/4.2.3/../../../../powerpc-gekko/lib\libfreetype.a(ftglyph.o)
 .debug_frame   0x0000862c       0xf0 c:/devkitpro/devkitppc/bin/../lib/gcc/powerpc-gekko/4.2.3/../../../../powerpc-gekko/lib\libfreetype.a(ftbitmap.o)

.debug_str      0x00000000     0xffe5
 *(.debug_str)
 .debug_str     0x00000000      0x14e c:/devkitpro/devkitppc/bin/../lib/gcc/powerpc-gekko/4.2.3/../../../../powerpc-gekko/lib/crtmain.o
                                0x193 (size before relaxing)
 .debug_str     0x0000014e      0xa0a freetype.o
                                0xc42 (size before relaxing)
 .debug_str     0x00000b58      0x1a3 template.o
                                0x361 (size before relaxing)
 .debug_str     0x00000cfb      0xb7c c:/devkitpro/devkitppc/bin/../lib/gcc/powerpc-gekko/4.2.3/../../../../powerpc-gekko/lib\libfreetype.a(ftinit.o)
                               0x1675 (size before relaxing)
 .debug_str     0x00001877     0x2cea c:/devkitpro/devkitppc/bin/../lib/gcc/powerpc-gekko/4.2.3/../../../../powerpc-gekko/lib\libfreetype.a(ftbase.o)
                               0x4529 (size before relaxing)
 .debug_str     0x00004561      0xd6c c:/devkitpro/devkitppc/bin/../lib/gcc/powerpc-gekko/4.2.3/../../../../powerpc-gekko/lib\libfreetype.a(truetype.o)
                               0x366d (size before relaxing)
 .debug_str     0x000052cd     0x1810 c:/devkitpro/devkitppc/bin/../lib/gcc/powerpc-gekko/4.2.3/../../../../powerpc-gekko/lib\libfreetype.a(type1.o)
                               0x3664 (size before relaxing)
 .debug_str     0x00006add     0x11fc c:/devkitpro/devkitppc/bin/../lib/gcc/powerpc-gekko/4.2.3/../../../../powerpc-gekko/lib\libfreetype.a(cff.o)
                               0x47bc (size before relaxing)
 .debug_str     0x00007cd9      0x42a c:/devkitpro/devkitppc/bin/../lib/gcc/powerpc-gekko/4.2.3/../../../../powerpc-gekko/lib\libfreetype.a(type1cid.o)
                               0x2ed8 (size before relaxing)
 .debug_str     0x00008103      0xc2c c:/devkitpro/devkitppc/bin/../lib/gcc/powerpc-gekko/4.2.3/../../../../powerpc-gekko/lib\libfreetype.a(pfr.o)
                               0x2520 (size before relaxing)
 .debug_str     0x00008d2f      0x453 c:/devkitpro/devkitppc/bin/../lib/gcc/powerpc-gekko/4.2.3/../../../../powerpc-gekko/lib\libfreetype.a(type42.o)
                               0x2e8e (size before relaxing)
 .debug_str     0x00009182      0x47a c:/devkitpro/devkitppc/bin/../lib/gcc/powerpc-gekko/4.2.3/../../../../powerpc-gekko/lib\libfreetype.a(winfnt.o)
                               0x1b84 (size before relaxing)
 .debug_str     0x000095fc      0x77a c:/devkitpro/devkitppc/bin/../lib/gcc/powerpc-gekko/4.2.3/../../../../powerpc-gekko/lib\libfreetype.a(pcf.o)
                               0x1ef9 (size before relaxing)
 .debug_str     0x00009d76      0x6bf c:/devkitpro/devkitppc/bin/../lib/gcc/powerpc-gekko/4.2.3/../../../../powerpc-gekko/lib\libfreetype.a(bdf.o)
                               0x1ffb (size before relaxing)
 .debug_str     0x0000a435     0x113e c:/devkitpro/devkitppc/bin/../lib/gcc/powerpc-gekko/4.2.3/../../../../powerpc-gekko/lib\libfreetype.a(sfnt.o)
                               0x4364 (size before relaxing)
 .debug_str     0x0000b573     0x1154 c:/devkitpro/devkitppc/bin/../lib/gcc/powerpc-gekko/4.2.3/../../../../powerpc-gekko/lib\libfreetype.a(autofit.o)
                               0x29a7 (size before relaxing)
 .debug_str     0x0000c6c7      0xdfd c:/devkitpro/devkitppc/bin/../lib/gcc/powerpc-gekko/4.2.3/../../../../powerpc-gekko/lib\libfreetype.a(pshinter.o)
                               0x29a0 (size before relaxing)
 .debug_str     0x0000d4c4      0x68d c:/devkitpro/devkitppc/bin/../lib/gcc/powerpc-gekko/4.2.3/../../../../powerpc-gekko/lib\libfreetype.a(raster.o)
                               0x1ce5 (size before relaxing)
 .debug_str     0x0000db51      0x3dc c:/devkitpro/devkitppc/bin/../lib/gcc/powerpc-gekko/4.2.3/../../../../powerpc-gekko/lib\libfreetype.a(smooth.o)
                               0x1b09 (size before relaxing)
 .debug_str     0x0000df2d      0x549 c:/devkitpro/devkitppc/bin/../lib/gcc/powerpc-gekko/4.2.3/../../../../powerpc-gekko/lib\libfreetype.a(ftgzip.o)
                                0x7fa (size before relaxing)
 .debug_str     0x0000e476      0x2c7 c:/devkitpro/devkitppc/bin/../lib/gcc/powerpc-gekko/4.2.3/../../../../powerpc-gekko/lib\libfreetype.a(ftlzw.o)
                                0x546 (size before relaxing)
 .debug_str     0x0000e73d      0xf39 c:/devkitpro/devkitppc/bin/../lib/gcc/powerpc-gekko/4.2.3/../../../../powerpc-gekko/lib\libfreetype.a(psaux.o)
                               0x3925 (size before relaxing)
 .debug_str     0x0000f676      0x1d4 c:/devkitpro/devkitppc/bin/../lib/gcc/powerpc-gekko/4.2.3/../../../../powerpc-gekko/lib\libfreetype.a(psnames.o)
                               0x197f (size before relaxing)
 .debug_str     0x0000f84a      0x3e1 c:/devkitpro/devkitppc/bin/../lib/gcc/powerpc-gekko/4.2.3/../../../../powerpc-gekko/lib\libfreetype.a(ftsystem.o)
                                0x639 (size before relaxing)
 .debug_str     0x0000fc2b      0x2b5 c:/devkitpro/devkitppc/bin/../lib/gcc/powerpc-gekko/4.2.3/../../../../powerpc-gekko/lib\libfreetype.a(ftglyph.o)
                               0x1831 (size before relaxing)
 .debug_str     0x0000fee0      0x105 c:/devkitpro/devkitppc/bin/../lib/gcc/powerpc-gekko/4.2.3/../../../../powerpc-gekko/lib\libfreetype.a(ftbitmap.o)
                               0x15be (size before relaxing)

.debug_loc      0x00000000      0x766
 *(.debug_loc)
 .debug_loc     0x00000000       0x1f c:/devkitpro/devkitppc/bin/../lib/gcc/powerpc-gekko/4.2.3/../../../../powerpc-gekko/lib/crtmain.o
 .debug_loc     0x0000001f      0x660 freetype.o
 .debug_loc     0x0000067f       0xe7 template.o

.debug_macinfo
 *(.debug_macinfo)

.debug_weaknames
 *(.debug_weaknames)

.debug_funcnames
 *(.debug_funcnames)

.debug_typenames
 *(.debug_typenames)

.debug_varnames
 *(.debug_varnames)
                0x00000000                __isIPL = 0x0
                0x8046f620                __stack_addr = ((((__bss_start + SIZEOF (.bss)) + 0x20000) + 0x7) & 0xfffffff8)
                0x8044f620                __stack_end = (__bss_start + SIZEOF (.bss))
                0x80473620                __intrstack_addr = (__stack_addr + 0x4000)
                0x8046f620                __intrstack_end = __stack_addr
                0x80473620                __Arena1Lo = ((__intrstack_addr + 0x1f) & 0xffffffe0)
                0x816ffff0                __Arena1Hi = 0x816ffff0
                0x81700000                __gxregs = ((__Arena1Hi + 0x1f) & 0xffffffe0)
                0x816ffff0                PROVIDE (__stack, 0x816ffff0)
                [0x00000000]                PROVIDE (__isIPL, __isIPL)
                0x80003100                PROVIDE (__text_start, text_mem_start)
                0x00000100                PROVIDE (__text_fstart, text_file_start)
                0x8008a4a0                PROVIDE (__data_start, data_mem_start)
                0x000874a0                PROVIDE (__data_fstart, data_file_start)
                0x80423720                PROVIDE (__bss_start, bss_mem_start)
                0x00420720                PROVIDE (__bss_fstart, bss_file_start)
                [0x8046f620]                PROVIDE (__stack_addr, __stack_addr)
                [0x8044f620]                PROVIDE (__stack_end, __stack_end)
                [0x80473620]                PROVIDE (__intrstack_addr, __intrstack_addr)
                [0x8046f620]                PROVIDE (__intrstack_end, __intrstack_end)
                [0x80473620]                PROVIDE (__Arena1Lo, __Arena1Lo)
                [0x816ffff0]                PROVIDE (__Arena1Hi, __Arena1Hi)
                [0x81700000]                PROVIDE (__gxregs, __gxregs)
LOAD c:/devkitpro/devkitppc/bin/../lib/gcc/powerpc-gekko/4.2.3/ecrti.o
LOAD c:/devkitpro/devkitppc/bin/../lib/gcc/powerpc-gekko/4.2.3/crtbegin.o
LOAD c:/devkitpro/devkitppc/bin/../lib/gcc/powerpc-gekko/4.2.3/../../../../powerpc-gekko/lib/crtmain.o
LOAD freetype.o
LOAD template.o
LOAD fontface.o
LOAD mp3.o
LOAD picture.o
LOAD c:/devkitPro/libogc/lib/cube\libmad.a
LOAD c:/devkitpro/devkitppc/bin/../lib/gcc/powerpc-gekko/4.2.3/../../../../powerpc-gekko/lib\libm.a
LOAD c:/devkitPro/libogc/lib/cube\libogc.a
LOAD c:/devkitpro/devkitppc/bin/../lib/gcc/powerpc-gekko/4.2.3/../../../../powerpc-gekko/lib\libfreetype.a
LOAD c:/devkitpro/devkitppc/bin/../lib/gcc/powerpc-gekko/4.2.3/../../../../powerpc-gekko/lib\libjpeg.a
LOAD c:/devkitpro/devkitppc/bin/../lib/gcc/powerpc-gekko/4.2.3\libgcc.a
START GROUP
LOAD c:/devkitpro/devkitppc/bin/../lib/gcc/powerpc-gekko/4.2.3/../../../../powerpc-gekko/lib\libsysbase.a
LOAD c:/devkitpro/devkitppc/bin/../lib/gcc/powerpc-gekko/4.2.3/../../../../powerpc-gekko/lib\libc.a
END GROUP
LOAD c:/devkitpro/devkitppc/bin/../lib/gcc/powerpc-gekko/4.2.3\libgcc.a
LOAD c:/devkitpro/devkitppc/bin/../lib/gcc/powerpc-gekko/4.2.3/crtsavres.o
LOAD c:/devkitpro/devkitppc/bin/../lib/gcc/powerpc-gekko/4.2.3/crtend.o
LOAD c:/devkitpro/devkitppc/bin/../lib/gcc/powerpc-gekko/4.2.3/ecrtn.o
OUTPUT(c:/devkitPro/devkitPPC/progsan/gctester_v0.4/gctester_v0.4.elf elf32-powerpc)

.debug_ranges   0x00000000     0x61c0
 .debug_ranges  0x00000000       0xc8 freetype.o
 .debug_ranges  0x000000c8       0x18 template.o
 .debug_ranges  0x000000e0      0x8d8 c:/devkitpro/devkitppc/bin/../lib/gcc/powerpc-gekko/4.2.3/../../../../powerpc-gekko/lib\libfreetype.a(ftbase.o)
 .debug_ranges  0x000009b8      0x4d0 c:/devkitpro/devkitppc/bin/../lib/gcc/powerpc-gekko/4.2.3/../../../../powerpc-gekko/lib\libfreetype.a(truetype.o)
 .debug_ranges  0x00000e88      0x6b8 c:/devkitpro/devkitppc/bin/../lib/gcc/powerpc-gekko/4.2.3/../../../../powerpc-gekko/lib\libfreetype.a(type1.o)
 .debug_ranges  0x00001540      0x998 c:/devkitpro/devkitppc/bin/../lib/gcc/powerpc-gekko/4.2.3/../../../../powerpc-gekko/lib\libfreetype.a(cff.o)
 .debug_ranges  0x00001ed8      0x3e8 c:/devkitpro/devkitppc/bin/../lib/gcc/powerpc-gekko/4.2.3/../../../../powerpc-gekko/lib\libfreetype.a(type1cid.o)
 .debug_ranges  0x000022c0      0x770 c:/devkitpro/devkitppc/bin/../lib/gcc/powerpc-gekko/4.2.3/../../../../powerpc-gekko/lib\libfreetype.a(pfr.o)
 .debug_ranges  0x00002a30      0x310 c:/devkitpro/devkitppc/bin/../lib/gcc/powerpc-gekko/4.2.3/../../../../powerpc-gekko/lib\libfreetype.a(type42.o)
 .debug_ranges  0x00002d40      0x168 c:/devkitpro/devkitppc/bin/../lib/gcc/powerpc-gekko/4.2.3/../../../../powerpc-gekko/lib\libfreetype.a(winfnt.o)
 .debug_ranges  0x00002ea8      0x2c8 c:/devkitpro/devkitppc/bin/../lib/gcc/powerpc-gekko/4.2.3/../../../../powerpc-gekko/lib\libfreetype.a(pcf.o)
 .debug_ranges  0x00003170      0x2a0 c:/devkitpro/devkitppc/bin/../lib/gcc/powerpc-gekko/4.2.3/../../../../powerpc-gekko/lib\libfreetype.a(bdf.o)
 .debug_ranges  0x00003410      0xa60 c:/devkitpro/devkitppc/bin/../lib/gcc/powerpc-gekko/4.2.3/../../../../powerpc-gekko/lib\libfreetype.a(sfnt.o)
 .debug_ranges  0x00003e70      0xaa8 c:/devkitpro/devkitppc/bin/../lib/gcc/powerpc-gekko/4.2.3/../../../../powerpc-gekko/lib\libfreetype.a(autofit.o)
 .debug_ranges  0x00004918      0x928 c:/devkitpro/devkitppc/bin/../lib/gcc/powerpc-gekko/4.2.3/../../../../powerpc-gekko/lib\libfreetype.a(pshinter.o)
 .debug_ranges  0x00005240      0x200 c:/devkitpro/devkitppc/bin/../lib/gcc/powerpc-gekko/4.2.3/../../../../powerpc-gekko/lib\libfreetype.a(raster.o)
 .debug_ranges  0x00005440      0x230 c:/devkitpro/devkitppc/bin/../lib/gcc/powerpc-gekko/4.2.3/../../../../powerpc-gekko/lib\libfreetype.a(smooth.o)
 .debug_ranges  0x00005670      0x348 c:/devkitpro/devkitppc/bin/../lib/gcc/powerpc-gekko/4.2.3/../../../../powerpc-gekko/lib\libfreetype.a(ftgzip.o)
 .debug_ranges  0x000059b8      0x170 c:/devkitpro/devkitppc/bin/../lib/gcc/powerpc-gekko/4.2.3/../../../../powerpc-gekko/lib\libfreetype.a(ftlzw.o)
 .debug_ranges  0x00005b28      0x498 c:/devkitpro/devkitppc/bin/../lib/gcc/powerpc-gekko/4.2.3/../../../../powerpc-gekko/lib\libfreetype.a(psaux.o)
 .debug_ranges  0x00005fc0      0x100 c:/devkitpro/devkitppc/bin/../lib/gcc/powerpc-gekko/4.2.3/../../../../powerpc-gekko/lib\libfreetype.a(psnames.o)
 .debug_ranges  0x000060c0       0x18 c:/devkitpro/devkitppc/bin/../lib/gcc/powerpc-gekko/4.2.3/../../../../powerpc-gekko/lib\libfreetype.a(ftglyph.o)
 .debug_ranges  0x000060d8       0xe8 c:/devkitpro/devkitppc/bin/../lib/gcc/powerpc-gekko/4.2.3/../../../../powerpc-gekko/lib\libfreetype.a(ftbitmap.o)
